

Microchip Technology PIC LITE Macro Assembler V1.33 build 59893 
                                                                                               Sun Dec 28 09:59:02 2014

Microchip Technology Omniscient Code Generator (Lite mode) build 59893
     1                           	processor	16F1709
     2                           	opt	pw 120
     3                           	opt	lm
     4                           	psect	idataCOMMON,global,class=CODE,delta=2
     5                           	psect	stringtext,global,reloc=256,class=STRCODE,delta=2
     6                           	psect	cinit,global,class=CODE,merge=1,delta=2
     7                           	psect	dataCOMMON,global,class=COMMON,space=1,delta=1
     8                           	psect	bssBANK0,global,class=BANK0,space=1,delta=1
     9                           	psect	bssBANK1,global,class=BANK1,space=1,delta=1
    10                           	psect	clrtext,global,class=CODE,delta=2
    11                           	psect	cstackBANK1,global,class=BANK1,space=1,delta=1
    12                           	psect	cstackCOMMON,global,class=COMMON,space=1,delta=1
    13                           	psect	cstackBANK0,global,class=BANK0,space=1,delta=1
    14                           	psect	maintext,global,class=CODE,merge=1,split=1,delta=2
    15                           	psect	text1,local,class=CODE,merge=1,delta=2
    16                           	psect	text2,local,class=CODE,merge=1,delta=2
    17                           	psect	text3,local,class=CODE,merge=1,delta=2
    18                           	psect	text4,local,class=CODE,merge=1,delta=2
    19                           	psect	text5,local,class=CODE,merge=1,delta=2
    20                           	psect	text6,local,class=CODE,merge=1,delta=2
    21                           	psect	text7,local,class=CODE,merge=1,delta=2
    22                           	psect	text8,local,class=CODE,merge=1,delta=2
    23                           	psect	text9,local,class=CODE,merge=1,delta=2
    24                           	psect	text10,local,class=CODE,merge=1,delta=2
    25                           	psect	text11,local,class=CODE,merge=1,delta=2
    26                           	psect	text12,local,class=CODE,merge=1,delta=2
    27                           	psect	text13,local,class=CODE,merge=1,delta=2
    28                           	psect	intentry,global,class=CODE,delta=2
    29                           	dabs	1,0x7E,2
    30  0000                     	;# 
    31  0001                     	;# 
    32  0002                     	;# 
    33  0003                     	;# 
    34  0004                     	;# 
    35  0005                     	;# 
    36  0006                     	;# 
    37  0007                     	;# 
    38  0008                     	;# 
    39  0009                     	;# 
    40  000A                     	;# 
    41  000B                     	;# 
    42  000C                     	;# 
    43  000D                     	;# 
    44  000E                     	;# 
    45  0011                     	;# 
    46  0012                     	;# 
    47  0013                     	;# 
    48  0015                     	;# 
    49  0016                     	;# 
    50  0016                     	;# 
    51  0017                     	;# 
    52  0018                     	;# 
    53  0019                     	;# 
    54  001A                     	;# 
    55  001B                     	;# 
    56  001C                     	;# 
    57  008C                     	;# 
    58  008D                     	;# 
    59  008E                     	;# 
    60  0091                     	;# 
    61  0092                     	;# 
    62  0093                     	;# 
    63  0095                     	;# 
    64  0096                     	;# 
    65  0097                     	;# 
    66  0098                     	;# 
    67  0099                     	;# 
    68  009A                     	;# 
    69  009B                     	;# 
    70  009B                     	;# 
    71  009C                     	;# 
    72  009D                     	;# 
    73  009E                     	;# 
    74  009F                     	;# 
    75  010C                     	;# 
    76  010D                     	;# 
    77  010E                     	;# 
    78  0111                     	;# 
    79  0112                     	;# 
    80  0113                     	;# 
    81  0114                     	;# 
    82  0115                     	;# 
    83  0116                     	;# 
    84  0117                     	;# 
    85  0118                     	;# 
    86  0119                     	;# 
    87  011C                     	;# 
    88  018C                     	;# 
    89  018D                     	;# 
    90  018E                     	;# 
    91  0191                     	;# 
    92  0191                     	;# 
    93  0192                     	;# 
    94  0193                     	;# 
    95  0193                     	;# 
    96  0194                     	;# 
    97  0195                     	;# 
    98  0196                     	;# 
    99  0197                     	;# 
   100  0199                     	;# 
   101  0199                     	;# 
   102  0199                     	;# 
   103  019A                     	;# 
   104  019A                     	;# 
   105  019A                     	;# 
   106  019B                     	;# 
   107  019B                     	;# 
   108  019B                     	;# 
   109  019B                     	;# 
   110  019B                     	;# 
   111  019C                     	;# 
   112  019C                     	;# 
   113  019C                     	;# 
   114  019D                     	;# 
   115  019D                     	;# 
   116  019D                     	;# 
   117  019E                     	;# 
   118  019E                     	;# 
   119  019E                     	;# 
   120  019F                     	;# 
   121  019F                     	;# 
   122  019F                     	;# 
   123  019F                     	;# 
   124  019F                     	;# 
   125  020C                     	;# 
   126  020D                     	;# 
   127  020E                     	;# 
   128  0211                     	;# 
   129  0211                     	;# 
   130  0212                     	;# 
   131  0212                     	;# 
   132  0213                     	;# 
   133  0213                     	;# 
   134  0214                     	;# 
   135  0214                     	;# 
   136  0215                     	;# 
   137  0215                     	;# 
   138  0215                     	;# 
   139  0215                     	;# 
   140  0216                     	;# 
   141  0216                     	;# 
   142  0217                     	;# 
   143  0217                     	;# 
   144  028C                     	;# 
   145  028D                     	;# 
   146  028E                     	;# 
   147  0291                     	;# 
   148  0291                     	;# 
   149  0292                     	;# 
   150  0293                     	;# 
   151  0293                     	;# 
   152  0298                     	;# 
   153  0298                     	;# 
   154  0299                     	;# 
   155  029A                     	;# 
   156  029A                     	;# 
   157  029E                     	;# 
   158  030C                     	;# 
   159  030D                     	;# 
   160  030E                     	;# 
   161  038C                     	;# 
   162  038D                     	;# 
   163  038E                     	;# 
   164  0391                     	;# 
   165  0392                     	;# 
   166  0393                     	;# 
   167  0394                     	;# 
   168  0395                     	;# 
   169  0396                     	;# 
   170  0397                     	;# 
   171  0398                     	;# 
   172  0399                     	;# 
   173  0415                     	;# 
   174  0416                     	;# 
   175  0417                     	;# 
   176  041C                     	;# 
   177  041D                     	;# 
   178  041E                     	;# 
   179  0511                     	;# 
   180  0515                     	;# 
   181  0617                     	;# 
   182  0618                     	;# 
   183  0619                     	;# 
   184  0619                     	;# 
   185  061A                     	;# 
   186  061B                     	;# 
   187  061C                     	;# 
   188  061C                     	;# 
   189  0691                     	;# 
   190  0692                     	;# 
   191  0693                     	;# 
   192  0694                     	;# 
   193  0695                     	;# 
   194  0696                     	;# 
   195  0697                     	;# 
   196  0698                     	;# 
   197  0699                     	;# 
   198  069A                     	;# 
   199  069B                     	;# 
   200  069C                     	;# 
   201  069D                     	;# 
   202  069E                     	;# 
   203  069F                     	;# 
   204  0E0F                     	;# 
   205  0E10                     	;# 
   206  0E11                     	;# 
   207  0E12                     	;# 
   208  0E13                     	;# 
   209  0E14                     	;# 
   210  0E15                     	;# 
   211  0E17                     	;# 
   212  0E20                     	;# 
   213  0E21                     	;# 
   214  0E22                     	;# 
   215  0E24                     	;# 
   216  0E25                     	;# 
   217  0E28                     	;# 
   218  0E29                     	;# 
   219  0E2A                     	;# 
   220  0E2B                     	;# 
   221  0E90                     	;# 
   222  0E91                     	;# 
   223  0E92                     	;# 
   224  0E94                     	;# 
   225  0E95                     	;# 
   226  0E9C                     	;# 
   227  0E9D                     	;# 
   228  0E9E                     	;# 
   229  0E9F                     	;# 
   230  0EA0                     	;# 
   231  0EA1                     	;# 
   232  0EA2                     	;# 
   233  0EA3                     	;# 
   234  0EA4                     	;# 
   235  0EA5                     	;# 
   236  0EA6                     	;# 
   237  0EA7                     	;# 
   238  0F0F                     	;# 
   239  0F10                     	;# 
   240  0F11                     	;# 
   241  0F12                     	;# 
   242  0F13                     	;# 
   243  0F14                     	;# 
   244  0F15                     	;# 
   245  0F16                     	;# 
   246  0F17                     	;# 
   247  0F18                     	;# 
   248  0F19                     	;# 
   249  0F1A                     	;# 
   250  0F1B                     	;# 
   251  0F1C                     	;# 
   252  0F1D                     	;# 
   253  0F1E                     	;# 
   254  0F1F                     	;# 
   255  0F20                     	;# 
   256  0F21                     	;# 
   257  0F22                     	;# 
   258  0F23                     	;# 
   259  0F24                     	;# 
   260  0F25                     	;# 
   261  0F26                     	;# 
   262  0F27                     	;# 
   263  0F28                     	;# 
   264  0F29                     	;# 
   265  0F2A                     	;# 
   266  0F2B                     	;# 
   267  0F2C                     	;# 
   268  0F2D                     	;# 
   269  0F9E                     	;# 
   270  0FE4                     	;# 
   271  0FE5                     	;# 
   272  0FE6                     	;# 
   273  0FE7                     	;# 
   274  0FE8                     	;# 
   275  0FE9                     	;# 
   276  0FEA                     	;# 
   277  0FEB                     	;# 
   278  0FED                     	;# 
   279  0FEE                     	;# 
   280  0FEF                     	;# 
   281  0000                     	;# 
   282  0001                     	;# 
   283  0002                     	;# 
   284  0003                     	;# 
   285  0004                     	;# 
   286  0005                     	;# 
   287  0006                     	;# 
   288  0007                     	;# 
   289  0008                     	;# 
   290  0009                     	;# 
   291  000A                     	;# 
   292  000B                     	;# 
   293  000C                     	;# 
   294  000D                     	;# 
   295  000E                     	;# 
   296  0011                     	;# 
   297  0012                     	;# 
   298  0013                     	;# 
   299  0015                     	;# 
   300  0016                     	;# 
   301  0016                     	;# 
   302  0017                     	;# 
   303  0018                     	;# 
   304  0019                     	;# 
   305  001A                     	;# 
   306  001B                     	;# 
   307  001C                     	;# 
   308  008C                     	;# 
   309  008D                     	;# 
   310  008E                     	;# 
   311  0091                     	;# 
   312  0092                     	;# 
   313  0093                     	;# 
   314  0095                     	;# 
   315  0096                     	;# 
   316  0097                     	;# 
   317  0098                     	;# 
   318  0099                     	;# 
   319  009A                     	;# 
   320  009B                     	;# 
   321  009B                     	;# 
   322  009C                     	;# 
   323  009D                     	;# 
   324  009E                     	;# 
   325  009F                     	;# 
   326  010C                     	;# 
   327  010D                     	;# 
   328  010E                     	;# 
   329  0111                     	;# 
   330  0112                     	;# 
   331  0113                     	;# 
   332  0114                     	;# 
   333  0115                     	;# 
   334  0116                     	;# 
   335  0117                     	;# 
   336  0118                     	;# 
   337  0119                     	;# 
   338  011C                     	;# 
   339  018C                     	;# 
   340  018D                     	;# 
   341  018E                     	;# 
   342  0191                     	;# 
   343  0191                     	;# 
   344  0192                     	;# 
   345  0193                     	;# 
   346  0193                     	;# 
   347  0194                     	;# 
   348  0195                     	;# 
   349  0196                     	;# 
   350  0197                     	;# 
   351  0199                     	;# 
   352  0199                     	;# 
   353  0199                     	;# 
   354  019A                     	;# 
   355  019A                     	;# 
   356  019A                     	;# 
   357  019B                     	;# 
   358  019B                     	;# 
   359  019B                     	;# 
   360  019B                     	;# 
   361  019B                     	;# 
   362  019C                     	;# 
   363  019C                     	;# 
   364  019C                     	;# 
   365  019D                     	;# 
   366  019D                     	;# 
   367  019D                     	;# 
   368  019E                     	;# 
   369  019E                     	;# 
   370  019E                     	;# 
   371  019F                     	;# 
   372  019F                     	;# 
   373  019F                     	;# 
   374  019F                     	;# 
   375  019F                     	;# 
   376  020C                     	;# 
   377  020D                     	;# 
   378  020E                     	;# 
   379  0211                     	;# 
   380  0211                     	;# 
   381  0212                     	;# 
   382  0212                     	;# 
   383  0213                     	;# 
   384  0213                     	;# 
   385  0214                     	;# 
   386  0214                     	;# 
   387  0215                     	;# 
   388  0215                     	;# 
   389  0215                     	;# 
   390  0215                     	;# 
   391  0216                     	;# 
   392  0216                     	;# 
   393  0217                     	;# 
   394  0217                     	;# 
   395  028C                     	;# 
   396  028D                     	;# 
   397  028E                     	;# 
   398  0291                     	;# 
   399  0291                     	;# 
   400  0292                     	;# 
   401  0293                     	;# 
   402  0293                     	;# 
   403  0298                     	;# 
   404  0298                     	;# 
   405  0299                     	;# 
   406  029A                     	;# 
   407  029A                     	;# 
   408  029E                     	;# 
   409  030C                     	;# 
   410  030D                     	;# 
   411  030E                     	;# 
   412  038C                     	;# 
   413  038D                     	;# 
   414  038E                     	;# 
   415  0391                     	;# 
   416  0392                     	;# 
   417  0393                     	;# 
   418  0394                     	;# 
   419  0395                     	;# 
   420  0396                     	;# 
   421  0397                     	;# 
   422  0398                     	;# 
   423  0399                     	;# 
   424  0415                     	;# 
   425  0416                     	;# 
   426  0417                     	;# 
   427  041C                     	;# 
   428  041D                     	;# 
   429  041E                     	;# 
   430  0511                     	;# 
   431  0515                     	;# 
   432  0617                     	;# 
   433  0618                     	;# 
   434  0619                     	;# 
   435  0619                     	;# 
   436  061A                     	;# 
   437  061B                     	;# 
   438  061C                     	;# 
   439  061C                     	;# 
   440  0691                     	;# 
   441  0692                     	;# 
   442  0693                     	;# 
   443  0694                     	;# 
   444  0695                     	;# 
   445  0696                     	;# 
   446  0697                     	;# 
   447  0698                     	;# 
   448  0699                     	;# 
   449  069A                     	;# 
   450  069B                     	;# 
   451  069C                     	;# 
   452  069D                     	;# 
   453  069E                     	;# 
   454  069F                     	;# 
   455  0E0F                     	;# 
   456  0E10                     	;# 
   457  0E11                     	;# 
   458  0E12                     	;# 
   459  0E13                     	;# 
   460  0E14                     	;# 
   461  0E15                     	;# 
   462  0E17                     	;# 
   463  0E20                     	;# 
   464  0E21                     	;# 
   465  0E22                     	;# 
   466  0E24                     	;# 
   467  0E25                     	;# 
   468  0E28                     	;# 
   469  0E29                     	;# 
   470  0E2A                     	;# 
   471  0E2B                     	;# 
   472  0E90                     	;# 
   473  0E91                     	;# 
   474  0E92                     	;# 
   475  0E94                     	;# 
   476  0E95                     	;# 
   477  0E9C                     	;# 
   478  0E9D                     	;# 
   479  0E9E                     	;# 
   480  0E9F                     	;# 
   481  0EA0                     	;# 
   482  0EA1                     	;# 
   483  0EA2                     	;# 
   484  0EA3                     	;# 
   485  0EA4                     	;# 
   486  0EA5                     	;# 
   487  0EA6                     	;# 
   488  0EA7                     	;# 
   489  0F0F                     	;# 
   490  0F10                     	;# 
   491  0F11                     	;# 
   492  0F12                     	;# 
   493  0F13                     	;# 
   494  0F14                     	;# 
   495  0F15                     	;# 
   496  0F16                     	;# 
   497  0F17                     	;# 
   498  0F18                     	;# 
   499  0F19                     	;# 
   500  0F1A                     	;# 
   501  0F1B                     	;# 
   502  0F1C                     	;# 
   503  0F1D                     	;# 
   504  0F1E                     	;# 
   505  0F1F                     	;# 
   506  0F20                     	;# 
   507  0F21                     	;# 
   508  0F22                     	;# 
   509  0F23                     	;# 
   510  0F24                     	;# 
   511  0F25                     	;# 
   512  0F26                     	;# 
   513  0F27                     	;# 
   514  0F28                     	;# 
   515  0F29                     	;# 
   516  0F2A                     	;# 
   517  0F2B                     	;# 
   518  0F2C                     	;# 
   519  0F2D                     	;# 
   520  0F9E                     	;# 
   521  0FE4                     	;# 
   522  0FE5                     	;# 
   523  0FE6                     	;# 
   524  0FE7                     	;# 
   525  0FE8                     	;# 
   526  0FE9                     	;# 
   527  0FEA                     	;# 
   528  0FEB                     	;# 
   529  0FED                     	;# 
   530  0FEE                     	;# 
   531  0FEF                     	;# 
   532  0000                     	;# 
   533  0001                     	;# 
   534  0002                     	;# 
   535  0003                     	;# 
   536  0004                     	;# 
   537  0005                     	;# 
   538  0006                     	;# 
   539  0007                     	;# 
   540  0008                     	;# 
   541  0009                     	;# 
   542  000A                     	;# 
   543  000B                     	;# 
   544  000C                     	;# 
   545  000D                     	;# 
   546  000E                     	;# 
   547  0011                     	;# 
   548  0012                     	;# 
   549  0013                     	;# 
   550  0015                     	;# 
   551  0016                     	;# 
   552  0016                     	;# 
   553  0017                     	;# 
   554  0018                     	;# 
   555  0019                     	;# 
   556  001A                     	;# 
   557  001B                     	;# 
   558  001C                     	;# 
   559  008C                     	;# 
   560  008D                     	;# 
   561  008E                     	;# 
   562  0091                     	;# 
   563  0092                     	;# 
   564  0093                     	;# 
   565  0095                     	;# 
   566  0096                     	;# 
   567  0097                     	;# 
   568  0098                     	;# 
   569  0099                     	;# 
   570  009A                     	;# 
   571  009B                     	;# 
   572  009B                     	;# 
   573  009C                     	;# 
   574  009D                     	;# 
   575  009E                     	;# 
   576  009F                     	;# 
   577  010C                     	;# 
   578  010D                     	;# 
   579  010E                     	;# 
   580  0111                     	;# 
   581  0112                     	;# 
   582  0113                     	;# 
   583  0114                     	;# 
   584  0115                     	;# 
   585  0116                     	;# 
   586  0117                     	;# 
   587  0118                     	;# 
   588  0119                     	;# 
   589  011C                     	;# 
   590  018C                     	;# 
   591  018D                     	;# 
   592  018E                     	;# 
   593  0191                     	;# 
   594  0191                     	;# 
   595  0192                     	;# 
   596  0193                     	;# 
   597  0193                     	;# 
   598  0194                     	;# 
   599  0195                     	;# 
   600  0196                     	;# 
   601  0197                     	;# 
   602  0199                     	;# 
   603  0199                     	;# 
   604  0199                     	;# 
   605  019A                     	;# 
   606  019A                     	;# 
   607  019A                     	;# 
   608  019B                     	;# 
   609  019B                     	;# 
   610  019B                     	;# 
   611  019B                     	;# 
   612  019B                     	;# 
   613  019C                     	;# 
   614  019C                     	;# 
   615  019C                     	;# 
   616  019D                     	;# 
   617  019D                     	;# 
   618  019D                     	;# 
   619  019E                     	;# 
   620  019E                     	;# 
   621  019E                     	;# 
   622  019F                     	;# 
   623  019F                     	;# 
   624  019F                     	;# 
   625  019F                     	;# 
   626  019F                     	;# 
   627  020C                     	;# 
   628  020D                     	;# 
   629  020E                     	;# 
   630  0211                     	;# 
   631  0211                     	;# 
   632  0212                     	;# 
   633  0212                     	;# 
   634  0213                     	;# 
   635  0213                     	;# 
   636  0214                     	;# 
   637  0214                     	;# 
   638  0215                     	;# 
   639  0215                     	;# 
   640  0215                     	;# 
   641  0215                     	;# 
   642  0216                     	;# 
   643  0216                     	;# 
   644  0217                     	;# 
   645  0217                     	;# 
   646  028C                     	;# 
   647  028D                     	;# 
   648  028E                     	;# 
   649  0291                     	;# 
   650  0291                     	;# 
   651  0292                     	;# 
   652  0293                     	;# 
   653  0293                     	;# 
   654  0298                     	;# 
   655  0298                     	;# 
   656  0299                     	;# 
   657  029A                     	;# 
   658  029A                     	;# 
   659  029E                     	;# 
   660  030C                     	;# 
   661  030D                     	;# 
   662  030E                     	;# 
   663  038C                     	;# 
   664  038D                     	;# 
   665  038E                     	;# 
   666  0391                     	;# 
   667  0392                     	;# 
   668  0393                     	;# 
   669  0394                     	;# 
   670  0395                     	;# 
   671  0396                     	;# 
   672  0397                     	;# 
   673  0398                     	;# 
   674  0399                     	;# 
   675  0415                     	;# 
   676  0416                     	;# 
   677  0417                     	;# 
   678  041C                     	;# 
   679  041D                     	;# 
   680  041E                     	;# 
   681  0511                     	;# 
   682  0515                     	;# 
   683  0617                     	;# 
   684  0618                     	;# 
   685  0619                     	;# 
   686  0619                     	;# 
   687  061A                     	;# 
   688  061B                     	;# 
   689  061C                     	;# 
   690  061C                     	;# 
   691  0691                     	;# 
   692  0692                     	;# 
   693  0693                     	;# 
   694  0694                     	;# 
   695  0695                     	;# 
   696  0696                     	;# 
   697  0697                     	;# 
   698  0698                     	;# 
   699  0699                     	;# 
   700  069A                     	;# 
   701  069B                     	;# 
   702  069C                     	;# 
   703  069D                     	;# 
   704  069E                     	;# 
   705  069F                     	;# 
   706  0E0F                     	;# 
   707  0E10                     	;# 
   708  0E11                     	;# 
   709  0E12                     	;# 
   710  0E13                     	;# 
   711  0E14                     	;# 
   712  0E15                     	;# 
   713  0E17                     	;# 
   714  0E20                     	;# 
   715  0E21                     	;# 
   716  0E22                     	;# 
   717  0E24                     	;# 
   718  0E25                     	;# 
   719  0E28                     	;# 
   720  0E29                     	;# 
   721  0E2A                     	;# 
   722  0E2B                     	;# 
   723  0E90                     	;# 
   724  0E91                     	;# 
   725  0E92                     	;# 
   726  0E94                     	;# 
   727  0E95                     	;# 
   728  0E9C                     	;# 
   729  0E9D                     	;# 
   730  0E9E                     	;# 
   731  0E9F                     	;# 
   732  0EA0                     	;# 
   733  0EA1                     	;# 
   734  0EA2                     	;# 
   735  0EA3                     	;# 
   736  0EA4                     	;# 
   737  0EA5                     	;# 
   738  0EA6                     	;# 
   739  0EA7                     	;# 
   740  0F0F                     	;# 
   741  0F10                     	;# 
   742  0F11                     	;# 
   743  0F12                     	;# 
   744  0F13                     	;# 
   745  0F14                     	;# 
   746  0F15                     	;# 
   747  0F16                     	;# 
   748  0F17                     	;# 
   749  0F18                     	;# 
   750  0F19                     	;# 
   751  0F1A                     	;# 
   752  0F1B                     	;# 
   753  0F1C                     	;# 
   754  0F1D                     	;# 
   755  0F1E                     	;# 
   756  0F1F                     	;# 
   757  0F20                     	;# 
   758  0F21                     	;# 
   759  0F22                     	;# 
   760  0F23                     	;# 
   761  0F24                     	;# 
   762  0F25                     	;# 
   763  0F26                     	;# 
   764  0F27                     	;# 
   765  0F28                     	;# 
   766  0F29                     	;# 
   767  0F2A                     	;# 
   768  0F2B                     	;# 
   769  0F2C                     	;# 
   770  0F2D                     	;# 
   771  0F9E                     	;# 
   772  0FE4                     	;# 
   773  0FE5                     	;# 
   774  0FE6                     	;# 
   775  0FE7                     	;# 
   776  0FE8                     	;# 
   777  0FE9                     	;# 
   778  0FEA                     	;# 
   779  0FEB                     	;# 
   780  0FED                     	;# 
   781  0FEE                     	;# 
   782  0FEF                     	;# 
   783  0000                     	;# 
   784  0001                     	;# 
   785  0002                     	;# 
   786  0003                     	;# 
   787  0004                     	;# 
   788  0005                     	;# 
   789  0006                     	;# 
   790  0007                     	;# 
   791  0008                     	;# 
   792  0009                     	;# 
   793  000A                     	;# 
   794  000B                     	;# 
   795  000C                     	;# 
   796  000D                     	;# 
   797  000E                     	;# 
   798  0011                     	;# 
   799  0012                     	;# 
   800  0013                     	;# 
   801  0015                     	;# 
   802  0016                     	;# 
   803  0016                     	;# 
   804  0017                     	;# 
   805  0018                     	;# 
   806  0019                     	;# 
   807  001A                     	;# 
   808  001B                     	;# 
   809  001C                     	;# 
   810  008C                     	;# 
   811  008D                     	;# 
   812  008E                     	;# 
   813  0091                     	;# 
   814  0092                     	;# 
   815  0093                     	;# 
   816  0095                     	;# 
   817  0096                     	;# 
   818  0097                     	;# 
   819  0098                     	;# 
   820  0099                     	;# 
   821  009A                     	;# 
   822  009B                     	;# 
   823  009B                     	;# 
   824  009C                     	;# 
   825  009D                     	;# 
   826  009E                     	;# 
   827  009F                     	;# 
   828  010C                     	;# 
   829  010D                     	;# 
   830  010E                     	;# 
   831  0111                     	;# 
   832  0112                     	;# 
   833  0113                     	;# 
   834  0114                     	;# 
   835  0115                     	;# 
   836  0116                     	;# 
   837  0117                     	;# 
   838  0118                     	;# 
   839  0119                     	;# 
   840  011C                     	;# 
   841  018C                     	;# 
   842  018D                     	;# 
   843  018E                     	;# 
   844  0191                     	;# 
   845  0191                     	;# 
   846  0192                     	;# 
   847  0193                     	;# 
   848  0193                     	;# 
   849  0194                     	;# 
   850  0195                     	;# 
   851  0196                     	;# 
   852  0197                     	;# 
   853  0199                     	;# 
   854  0199                     	;# 
   855  0199                     	;# 
   856  019A                     	;# 
   857  019A                     	;# 
   858  019A                     	;# 
   859  019B                     	;# 
   860  019B                     	;# 
   861  019B                     	;# 
   862  019B                     	;# 
   863  019B                     	;# 
   864  019C                     	;# 
   865  019C                     	;# 
   866  019C                     	;# 
   867  019D                     	;# 
   868  019D                     	;# 
   869  019D                     	;# 
   870  019E                     	;# 
   871  019E                     	;# 
   872  019E                     	;# 
   873  019F                     	;# 
   874  019F                     	;# 
   875  019F                     	;# 
   876  019F                     	;# 
   877  019F                     	;# 
   878  020C                     	;# 
   879  020D                     	;# 
   880  020E                     	;# 
   881  0211                     	;# 
   882  0211                     	;# 
   883  0212                     	;# 
   884  0212                     	;# 
   885  0213                     	;# 
   886  0213                     	;# 
   887  0214                     	;# 
   888  0214                     	;# 
   889  0215                     	;# 
   890  0215                     	;# 
   891  0215                     	;# 
   892  0215                     	;# 
   893  0216                     	;# 
   894  0216                     	;# 
   895  0217                     	;# 
   896  0217                     	;# 
   897  028C                     	;# 
   898  028D                     	;# 
   899  028E                     	;# 
   900  0291                     	;# 
   901  0291                     	;# 
   902  0292                     	;# 
   903  0293                     	;# 
   904  0293                     	;# 
   905  0298                     	;# 
   906  0298                     	;# 
   907  0299                     	;# 
   908  029A                     	;# 
   909  029A                     	;# 
   910  029E                     	;# 
   911  030C                     	;# 
   912  030D                     	;# 
   913  030E                     	;# 
   914  038C                     	;# 
   915  038D                     	;# 
   916  038E                     	;# 
   917  0391                     	;# 
   918  0392                     	;# 
   919  0393                     	;# 
   920  0394                     	;# 
   921  0395                     	;# 
   922  0396                     	;# 
   923  0397                     	;# 
   924  0398                     	;# 
   925  0399                     	;# 
   926  0415                     	;# 
   927  0416                     	;# 
   928  0417                     	;# 
   929  041C                     	;# 
   930  041D                     	;# 
   931  041E                     	;# 
   932  0511                     	;# 
   933  0515                     	;# 
   934  0617                     	;# 
   935  0618                     	;# 
   936  0619                     	;# 
   937  0619                     	;# 
   938  061A                     	;# 
   939  061B                     	;# 
   940  061C                     	;# 
   941  061C                     	;# 
   942  0691                     	;# 
   943  0692                     	;# 
   944  0693                     	;# 
   945  0694                     	;# 
   946  0695                     	;# 
   947  0696                     	;# 
   948  0697                     	;# 
   949  0698                     	;# 
   950  0699                     	;# 
   951  069A                     	;# 
   952  069B                     	;# 
   953  069C                     	;# 
   954  069D                     	;# 
   955  069E                     	;# 
   956  069F                     	;# 
   957  0E0F                     	;# 
   958  0E10                     	;# 
   959  0E11                     	;# 
   960  0E12                     	;# 
   961  0E13                     	;# 
   962  0E14                     	;# 
   963  0E15                     	;# 
   964  0E17                     	;# 
   965  0E20                     	;# 
   966  0E21                     	;# 
   967  0E22                     	;# 
   968  0E24                     	;# 
   969  0E25                     	;# 
   970  0E28                     	;# 
   971  0E29                     	;# 
   972  0E2A                     	;# 
   973  0E2B                     	;# 
   974  0E90                     	;# 
   975  0E91                     	;# 
   976  0E92                     	;# 
   977  0E94                     	;# 
   978  0E95                     	;# 
   979  0E9C                     	;# 
   980  0E9D                     	;# 
   981  0E9E                     	;# 
   982  0E9F                     	;# 
   983  0EA0                     	;# 
   984  0EA1                     	;# 
   985  0EA2                     	;# 
   986  0EA3                     	;# 
   987  0EA4                     	;# 
   988  0EA5                     	;# 
   989  0EA6                     	;# 
   990  0EA7                     	;# 
   991  0F0F                     	;# 
   992  0F10                     	;# 
   993  0F11                     	;# 
   994  0F12                     	;# 
   995  0F13                     	;# 
   996  0F14                     	;# 
   997  0F15                     	;# 
   998  0F16                     	;# 
   999  0F17                     	;# 
  1000  0F18                     	;# 
  1001  0F19                     	;# 
  1002  0F1A                     	;# 
  1003  0F1B                     	;# 
  1004  0F1C                     	;# 
  1005  0F1D                     	;# 
  1006  0F1E                     	;# 
  1007  0F1F                     	;# 
  1008  0F20                     	;# 
  1009  0F21                     	;# 
  1010  0F22                     	;# 
  1011  0F23                     	;# 
  1012  0F24                     	;# 
  1013  0F25                     	;# 
  1014  0F26                     	;# 
  1015  0F27                     	;# 
  1016  0F28                     	;# 
  1017  0F29                     	;# 
  1018  0F2A                     	;# 
  1019  0F2B                     	;# 
  1020  0F2C                     	;# 
  1021  0F2D                     	;# 
  1022  0F9E                     	;# 
  1023  0FE4                     	;# 
  1024  0FE5                     	;# 
  1025  0FE6                     	;# 
  1026  0FE7                     	;# 
  1027  0FE8                     	;# 
  1028  0FE9                     	;# 
  1029  0FEA                     	;# 
  1030  0FEB                     	;# 
  1031  0FED                     	;# 
  1032  0FEE                     	;# 
  1033  0FEF                     	;# 
  1034                           
  1035                           	psect	idataCOMMON
  1036  0705                     __pidataCOMMON:	
  1037                           
  1038                           ;initializer for disChar@pos
  1039  0705  3407               	retlw	7
  1040  0706  3400               	retlw	0
  1041  000B                     _INTCONbits	set	11
  1042  0011                     _PIR1bits	set	17
  1043  0015                     _TMR0	set	21
  1044  005A                     _TMR0IF	set	90
  1045  009D                     _ADCON0bits	set	157
  1046  009E                     _ADCON1bits	set	158
  1047  009C                     _ADRESH	set	156
  1048  009B                     _ADRESL	set	155
  1049  0095                     _OPTION_REGbits	set	149
  1050  0099                     _OSCCONbits	set	153
  1051  0091                     _PIE1bits	set	145
  1052  008C                     _TRISA	set	140
  1053  008D                     _TRISBbits	set	141
  1054  010D                     _LATBbits	set	269
  1055  018C                     _ANSELA	set	396
  1056  018D                     _ANSELB	set	397
  1057  0212                     _SSP1ADD	set	530
  1058  0216                     _SSP1CON2	set	534
  1059  0216                     _SSP1CON2bits	set	534
  1060  0215                     _SSP1CONbits	set	533
  1061  0214                     _SSP1STAT	set	532
  1062  0211                     _SSPBUF	set	529
  1063  0216                     _SSPCON2bits	set	534
  1064  020D                     _WPUBbits	set	525
  1065  10B2                     _PEN	set	4274
  1066  10B3                     _RCEN	set	4275
  1067  0515                     _OPA2CONbits	set	1301
  1068  0E9C                     _RB4PPS	set	3740
  1069  0E9E                     _RB6PPS	set	3742
  1070                           
  1071                           	psect	stringtext
  1072  0700                     __pstringtext:	
  1073  0700                     __stringdata:	
  1074  0700                     STR_1:	
  1075  0700  344C               	retlw	76	;'L'
  1076  0701  3455               	retlw	85	;'U'
  1077  0702  3458               	retlw	88	;'X'
  1078  0703  344D               	retlw	77	;'M'
  1079  0704  3400               	retlw	0
  1080  0705                     __end_of__stringdata:	
  1081                           
  1082                           ; #config settings
  1083  0000                     
  1084                           	psect	cinit
  1085  0034                     start_initialization:	
  1086  0034                     __initialization:	
  1087                           
  1088                           ; Clear objects allocated to BANK0
  1089  0034  305C               	movlw	low __pbssBANK0
  1090  0035  0084               	movwf	4
  1091  0036  3000               	movlw	high __pbssBANK0
  1092  0037  0085               	movwf	5
  1093  0038  3013               	movlw	19
  1094  0039  3186  2630  3180   	fcall	clear_ram0
  1095                           
  1096                           ; Clear objects allocated to BANK1
  1097  003C  30A0               	movlw	low __pbssBANK1
  1098  003D  0084               	movwf	4
  1099  003E  3000               	movlw	high __pbssBANK1
  1100  003F  0085               	movwf	5
  1101  0040  3013               	movlw	19
  1102  0041  3186  2630  3180   	fcall	clear_ram0
  1103                           
  1104                           ; Initialize objects allocated to COMMON
  1105  0044  3187  2705  3180   	fcall	__pidataCOMMON	;fetch initializer
  1106  0047  00FA               	movwf	__pdataCOMMON& (0+127)
  1107  0048  3187  2706         	fcall	__pidataCOMMON+1	;fetch initializer
  1108  004A  00FB               	movwf	(__pdataCOMMON+1)& (0+127)
  1109  004B                     end_of_initialization:	
  1110                           ;End of C runtime variable initialization code
  1111                           
  1112  004B                     __end_of__initialization:	
  1113  004B  107E               	bcf	pic14e$flags,0	;clear compiler interrupt flag
  1114  004C  0020               	movlb	0
  1115  004D  3180  284F         	ljmp	_main	;jump to C main() function
  1116                           
  1117                           	psect	dataCOMMON
  1118  007A                     __pdataCOMMON:	
  1119  007A                     disChar@pos:	
  1120  007A                     	ds	2
  1121                           
  1122                           	psect	bssBANK0
  1123  005C                     __pbssBANK0:	
  1124  005C                     _ad_res:	
  1125  005C                     	ds	4
  1126  0060                     _lux:	
  1127  0060                     	ds	4
  1128  0064                     _vr:	
  1129  0064                     	ds	4
  1130  0068                     _i:	
  1131  0068                     	ds	2
  1132  006A                     _res:	
  1133  006A                     	ds	2
  1134  006C                     isr@cnt:	
  1135  006C                     	ds	2
  1136  006E                     _bMedida:	
  1137  006E                     	ds	1
  1138                           
  1139                           	psect	bssBANK1
  1140  00A0                     __pbssBANK1:	
  1141  00A0                     _resul:	
  1142  00A0                     	ds	4
  1143  00A4                     _wlux:	
  1144  00A4                     	ds	4
  1145  00A8                     _fvr:	
  1146  00A8                     	ds	3
  1147  00AB                     _ip:	
  1148  00AB                     	ds	3
  1149  00AE                     _Resul:	
  1150  00AE                     	ds	5
  1151                           
  1152                           	psect	clrtext
  1153  0630                     clear_ram0:	
  1154                           ;	Called with FSR0 containing the base address, and
  1155                           ;	WREG with the size to clear
  1156                           
  1157  0630  0064               	clrwdt	;clear the watchdog before getting into this loop
  1158  0631                     clrloop0:	
  1159  0631  0180               	clrf	0	;clear RAM location pointed to by FSR
  1160  0632  3101               	addfsr 0,1
  1161  0633  0B89               	decfsz	9,f	;Have we reached the end of clearing yet?
  1162  0634  2E31               	goto	clrloop0	;have we reached the end yet?
  1163  0635  3400               	retlw	0	;all done for this memory range, return
  1164                           
  1165                           	psect	cstackBANK1
  1166  00B3                     __pcstackBANK1:	
  1167  00B3                     main@i:	
  1168                           
  1169                           ; 2 bytes @ 0x0
  1170  00B3                     	ds	2
  1171                           
  1172                           	psect	cstackCOMMON
  1173  0070                     __pcstackCOMMON:	
  1174  0070                     ?_initPD3535:	
  1175  0070                     ?_main:	
  1176                           ; 0 bytes @ 0x0
  1177                           
  1178  0070                     ?_isr:	
  1179                           ; 0 bytes @ 0x0
  1180                           
  1181  0070                     ??_isr:	
  1182                           ; 0 bytes @ 0x0
  1183                           
  1184  0070                     ?_disChar:	
  1185                           ; 0 bytes @ 0x0
  1186                           
  1187                           
  1188                           ; 0 bytes @ 0x0
  1189  0070                     	ds	2
  1190  0072                     ?_snd4094:	
  1191  0072                     ?___ftpack:	
  1192                           ; 0 bytes @ 0x2
  1193                           
  1194  0072                     ?___lldiv:	
  1195                           ; 3 bytes @ 0x2
  1196                           
  1197  0072                     ?___llmod:	
  1198                           ; 4 bytes @ 0x2
  1199                           
  1200  0072                     snd4094@dato:	
  1201                           ; 4 bytes @ 0x2
  1202                           
  1203  0072                     ___ftpack@arg:	
  1204                           ; 2 bytes @ 0x2
  1205                           
  1206  0072                     ___lldiv@divisor:	
  1207                           ; 3 bytes @ 0x2
  1208                           
  1209  0072                     ___llmod@divisor:	
  1210                           ; 4 bytes @ 0x2
  1211                           
  1212                           
  1213                           ; 4 bytes @ 0x2
  1214  0072                     	ds	2
  1215  0074                     ??_snd4094:	
  1216                           
  1217                           ; 0 bytes @ 0x4
  1218  0074                     	ds	1
  1219  0075                     snd4094@i:	
  1220  0075                     ___ftpack@exp:	
  1221                           ; 1 bytes @ 0x5
  1222                           
  1223                           
  1224                           ; 1 bytes @ 0x5
  1225  0075                     	ds	1
  1226  0076                     ??_initPD3535:	
  1227  0076                     ??_disChar:	
  1228                           ; 0 bytes @ 0x6
  1229                           
  1230  0076                     ___ftpack@sign:	
  1231                           ; 0 bytes @ 0x6
  1232                           
  1233  0076                     ___lldiv@dividend:	
  1234                           ; 1 bytes @ 0x6
  1235                           
  1236  0076                     ___llmod@dividend:	
  1237                           ; 4 bytes @ 0x6
  1238                           
  1239                           
  1240                           ; 4 bytes @ 0x6
  1241  0076                     	ds	1
  1242  0077                     ??___ftpack:	
  1243  0077                     initPD3535@modo:	
  1244                           ; 0 bytes @ 0x7
  1245                           
  1246  0077                     disChar@ch:	
  1247                           ; 1 bytes @ 0x7
  1248                           
  1249                           
  1250                           ; 1 bytes @ 0x7
  1251  0077                     	ds	1
  1252  0078                     initPD3535@dato:	
  1253  0078                     disChar@buff:	
  1254                           ; 2 bytes @ 0x8
  1255                           
  1256                           
  1257                           ; 2 bytes @ 0x8
  1258  0078                     	ds	2
  1259                           
  1260                           	psect	cstackBANK0
  1261  0020                     __pcstackBANK0:	
  1262  0020                     ?_printVal:	
  1263  0020                     ??___lldiv:	
  1264                           ; 0 bytes @ 0x0
  1265                           
  1266  0020                     ??___llmod:	
  1267                           ; 0 bytes @ 0x0
  1268                           
  1269  0020                     ?___lltoft:	
  1270                           ; 0 bytes @ 0x0
  1271                           
  1272  0020                     printVal@str:	
  1273                           ; 3 bytes @ 0x0
  1274                           
  1275  0020                     ___lltoft@c:	
  1276                           ; 2 bytes @ 0x0
  1277                           
  1278                           
  1279                           ; 4 bytes @ 0x0
  1280  0020                     	ds	1
  1281  0021                     ___llmod@counter:	
  1282  0021                     ___lldiv@quotient:	
  1283                           ; 1 bytes @ 0x1
  1284                           
  1285                           
  1286                           ; 4 bytes @ 0x1
  1287  0021                     	ds	1
  1288  0022                     ??_printVal:	
  1289                           
  1290                           ; 0 bytes @ 0x2
  1291  0022                     	ds	1
  1292  0023                     printVal@i:	
  1293                           
  1294                           ; 2 bytes @ 0x3
  1295  0023                     	ds	1
  1296  0024                     ??___lltoft:	
  1297                           
  1298                           ; 0 bytes @ 0x4
  1299  0024                     	ds	1
  1300  0025                     ___lldiv@counter:	
  1301  0025                     ___lltoft@exp:	
  1302                           ; 1 bytes @ 0x5
  1303                           
  1304                           
  1305                           ; 1 bytes @ 0x5
  1306  0025                     	ds	1
  1307  0026                     ?_ultoa:	
  1308  0026                     ?___ftdiv:	
  1309                           ; 1 bytes @ 0x6
  1310                           
  1311  0026                     ___ftdiv@f2:	
  1312                           ; 3 bytes @ 0x6
  1313                           
  1314  0026                     ultoa@val:	
  1315                           ; 3 bytes @ 0x6
  1316                           
  1317                           
  1318                           ; 4 bytes @ 0x6
  1319  0026                     	ds	3
  1320  0029                     ___ftdiv@f1:	
  1321                           
  1322                           ; 3 bytes @ 0x9
  1323  0029                     	ds	1
  1324  002A                     ultoa@base:	
  1325                           
  1326                           ; 2 bytes @ 0xA
  1327  002A                     	ds	2
  1328  002C                     ??_ultoa:	
  1329  002C                     ??___ftdiv:	
  1330                           ; 0 bytes @ 0xC
  1331                           
  1332                           
  1333                           ; 0 bytes @ 0xC
  1334  002C                     	ds	1
  1335  002D                     ultoa@v:	
  1336                           
  1337                           ; 4 bytes @ 0xD
  1338  002D                     	ds	3
  1339  0030                     ___ftdiv@cntr:	
  1340                           
  1341                           ; 1 bytes @ 0x10
  1342  0030                     	ds	1
  1343  0031                     ultoa@c:	
  1344  0031                     ___ftdiv@f3:	
  1345                           ; 1 bytes @ 0x11
  1346                           
  1347                           
  1348                           ; 3 bytes @ 0x11
  1349  0031                     	ds	1
  1350  0032                     ultoa@buf:	
  1351                           
  1352                           ; 1 bytes @ 0x12
  1353  0032                     	ds	1
  1354  0033                     ?_ltoa:	
  1355  0033                     ltoa@val:	
  1356                           ; 1 bytes @ 0x13
  1357                           
  1358                           
  1359                           ; 4 bytes @ 0x13
  1360  0033                     	ds	1
  1361  0034                     ___ftdiv@exp:	
  1362                           
  1363                           ; 1 bytes @ 0x14
  1364  0034                     	ds	1
  1365  0035                     ___ftdiv@sign:	
  1366                           
  1367                           ; 1 bytes @ 0x15
  1368  0035                     	ds	1
  1369  0036                     ?___ftmul:	
  1370  0036                     ___ftmul@f1:	
  1371                           ; 3 bytes @ 0x16
  1372                           
  1373                           
  1374                           ; 3 bytes @ 0x16
  1375  0036                     	ds	1
  1376  0037                     ltoa@base:	
  1377                           
  1378                           ; 2 bytes @ 0x17
  1379  0037                     	ds	2
  1380  0039                     ??_ltoa:	
  1381  0039                     ___ftmul@f2:	
  1382                           ; 0 bytes @ 0x19
  1383                           
  1384                           
  1385                           ; 3 bytes @ 0x19
  1386  0039                     	ds	1
  1387  003A                     ltoa@cp:	
  1388                           
  1389                           ; 1 bytes @ 0x1A
  1390  003A                     	ds	1
  1391  003B                     ltoa@buf:	
  1392                           
  1393                           ; 1 bytes @ 0x1B
  1394  003B                     	ds	1
  1395  003C                     ??___ftmul:	
  1396                           
  1397                           ; 0 bytes @ 0x1C
  1398  003C                     	ds	4
  1399  0040                     ___ftmul@exp:	
  1400                           
  1401                           ; 1 bytes @ 0x20
  1402  0040                     	ds	1
  1403  0041                     ___ftmul@f3_as_product:	
  1404                           
  1405                           ; 3 bytes @ 0x21
  1406  0041                     	ds	3
  1407  0044                     ___ftmul@cntr:	
  1408                           
  1409                           ; 1 bytes @ 0x24
  1410  0044                     	ds	1
  1411  0045                     ___ftmul@sign:	
  1412                           
  1413                           ; 1 bytes @ 0x25
  1414  0045                     	ds	1
  1415  0046                     ?___fttol:	
  1416  0046                     ___fttol@f1:	
  1417                           ; 4 bytes @ 0x26
  1418                           
  1419                           
  1420                           ; 3 bytes @ 0x26
  1421  0046                     	ds	4
  1422  004A                     ??___fttol:	
  1423                           
  1424                           ; 0 bytes @ 0x2A
  1425  004A                     	ds	4
  1426  004E                     ___fttol@sign1:	
  1427                           
  1428                           ; 1 bytes @ 0x2E
  1429  004E                     	ds	1
  1430  004F                     ___fttol@lval:	
  1431                           
  1432                           ; 4 bytes @ 0x2F
  1433  004F                     	ds	4
  1434  0053                     ___fttol@exp1:	
  1435                           
  1436                           ; 1 bytes @ 0x33
  1437  0053                     	ds	1
  1438  0054                     ??_main:	
  1439                           
  1440                           ; 0 bytes @ 0x34
  1441  0054                     	ds	8
  1442                           
  1443                           	psect	maintext
  1444  004F                     __pmaintext:	
  1445 ;;
  1446 ;;Main: autosize = 0, tempsize = 8, incstack = 0, save=0
  1447 ;;
  1448 ;; *************** function _main *****************
  1449 ;; Defined at:
  1450 ;;		line 36 in file "main.c"
  1451 ;; Parameters:    Size  Location     Type
  1452 ;;		None
  1453 ;; Auto vars:     Size  Location     Type
  1454 ;;  i               2    0[BANK1 ] int 
  1455 ;;  temp            1    0        unsigned char 
  1456 ;; Return value:  Size  Location     Type
  1457 ;;		None               void
  1458 ;; Registers used:
  1459 ;;		wreg, fsr0l, fsr0h, fsr1l, fsr1h, status,2, status,0, pclath, cstack
  1460 ;; Tracked objects:
  1461 ;;		On entry : 17F/0
  1462 ;;		On exit  : 0/0
  1463 ;;		Unchanged: 0/0
  1464 ;; Data sizes:     COMMON   BANK0   BANK1   BANK2   BANK3   BANK4   BANK5   BANK6   BANK7   BANK8   BANK9  BANK10  BANK1
      +1  BANK12
  1465 ;;      Params:         0       0       0       0       0       0       0       0       0       0       0       0       
      +0       0
  1466 ;;      Locals:         0       0       2       0       0       0       0       0       0       0       0       0       
      +0       0
  1467 ;;      Temps:          0       8       0       0       0       0       0       0       0       0       0       0       
      +0       0
  1468 ;;      Totals:         0       8       2       0       0       0       0       0       0       0       0       0       
      +0       0
  1469 ;;Total ram usage:       10 bytes
  1470 ;; Hardware stack levels required when called:    4
  1471 ;; This function calls:
  1472 ;;		___ftdiv
  1473 ;;		___ftmul
  1474 ;;		___fttol
  1475 ;;		___lltoft
  1476 ;;		_initPD3535
  1477 ;;		_ltoa
  1478 ;;		_printVal
  1479 ;; This function is called by:
  1480 ;;		Startup code after reset
  1481 ;; This function uses a non-reentrant model
  1482 ;;
  1483                           
  1484                           
  1485                           ;psect for function _main
  1486  004F                     _main:	
  1487                           
  1488                           ;main.c: 39: unsigned char temp;
  1489                           ;main.c: 40: int i;
  1490                           ;main.c: 43: OSCCONbits.SCS = 0b10;
  1491                           
  1492                           ;incstack = 0
  1493                           ; Regs used in _main: [wreg-fsr1h+status,2+status,0+pclath+cstack]
  1494  004F  0021               	movlb	1	; select bank1
  1495  0050  0819               	movf	25,w	;volatile
  1496  0051  39FC               	andlw	-4
  1497  0052  3802               	iorlw	2
  1498  0053  0099               	movwf	25	;volatile
  1499                           
  1500                           ;main.c: 44: OSCCONbits.IRCF = 0b1111;
  1501  0054  3078               	movlw	120
  1502  0055  0499               	iorwf	25,f	;volatile
  1503                           
  1504                           ;main.c: 47: TRISA = 0xFFFF;
  1505  0056  30FF               	movlw	255
  1506  0057  008C               	movwf	12	;volatile
  1507                           
  1508                           ;main.c: 48: ANSELB = 0x00;
  1509  0058  0023               	movlb	3	; select bank3
  1510  0059  018D               	clrf	13	;volatile
  1511                           
  1512                           ;main.c: 50: TRISBbits.TRISB7 = 0;
  1513  005A  0021               	movlb	1	; select bank1
  1514  005B  138D               	bcf	13,7	;volatile
  1515                           
  1516                           ;main.c: 51: LATBbits.LATB7 = 1;
  1517  005C  0022               	movlb	2	; select bank2
  1518  005D  178D               	bsf	13,7	;volatile
  1519                           
  1520                           ;main.c: 54: OPTION_REGbits.PSA = 0;
  1521  005E  0021               	movlb	1	; select bank1
  1522  005F  1195               	bcf	21,3	;volatile
  1523                           
  1524                           ;main.c: 55: OPTION_REGbits.PS = 0b111;
  1525  0060  3007               	movlw	7
  1526  0061  0495               	iorwf	21,f	;volatile
  1527                           
  1528                           ;main.c: 56: OPTION_REGbits.TMR0CS = 0;
  1529  0062  1295               	bcf	21,5	;volatile
  1530                           
  1531                           ;main.c: 57: INTCONbits.TMR0IE = 1;
  1532  0063  168B               	bsf	11,5	;volatile
  1533                           
  1534                           ;main.c: 58: INTCONbits.TMR0IF = 0;
  1535  0064  110B               	bcf	11,2	;volatile
  1536                           
  1537                           ;main.c: 59: TMR0 = 0;
  1538  0065  0020               	movlb	0	; select bank0
  1539  0066  0195               	clrf	21	;volatile
  1540                           
  1541                           ;main.c: 63: OPA2CONbits.OPA2EN = 1;
  1542  0067  002A               	movlb	10	; select bank10
  1543  0068  1795               	bsf	21,7	;volatile
  1544                           
  1545                           ;main.c: 66: ANSELA = 0b00000100;
  1546  0069  3004               	movlw	4
  1547  006A  0023               	movlb	3	; select bank3
  1548  006B  008C               	movwf	12	;volatile
  1549                           
  1550                           ;main.c: 67: TRISA = 0b00000100;
  1551  006C  3004               	movlw	4
  1552  006D  0021               	movlb	1	; select bank1
  1553  006E  008C               	movwf	12	;volatile
  1554                           
  1555                           ;main.c: 68: ADCON1bits.ADFM = 1;
  1556  006F  179E               	bsf	30,7	;volatile
  1557                           
  1558                           ;main.c: 69: ADCON0bits.CHS = 0b00010;
  1559  0070  081D               	movf	29,w	;volatile
  1560  0071  3983               	andlw	-125
  1561  0072  3808               	iorlw	8
  1562  0073  009D               	movwf	29	;volatile
  1563                           
  1564                           ;main.c: 70: ADCON1bits.ADPREF = 0;
  1565  0074  30FC               	movlw	-4
  1566  0075  059E               	andwf	30,f	;volatile
  1567                           
  1568                           ;main.c: 71: ADCON1bits.ADCS = 0b110;
  1569  0076  081E               	movf	30,w	;volatile
  1570  0077  398F               	andlw	-113
  1571  0078  3860               	iorlw	96
  1572  0079  009E               	movwf	30	;volatile
  1573                           
  1574                           ;main.c: 72: ADCON0bits.ADON = 1;
  1575  007A  141D               	bsf	29,0	;volatile
  1576                           
  1577                           ;main.c: 77: for (i = 0; i < 5; i++) {
  1578  007B  01B3               	clrf	main@i^(0+128)
  1579  007C  01B4               	clrf	(main@i+1)^(0+128)
  1580  007D  0834               	movf	(main@i+1)^(0+128),w
  1581  007E  3A80               	xorlw	128
  1582  007F  0020               	movlb	0	; select bank0
  1583  0080  00D4               	movwf	??_main
  1584  0081  3080               	movlw	128
  1585  0082  0254               	subwf	??_main,w
  1586  0083  1D03               	skipz
  1587  0084  2888               	goto	u2415
  1588  0085  3005               	movlw	5
  1589  0086  0021               	movlb	1	; select bank1
  1590  0087  0233               	subwf	main@i^(0+128),w
  1591  0088                     u2415:	
  1592  0088  1803               	btfsc	3,0
  1593  0089  28C0               	goto	l1894
  1594  008A                     l1888:	
  1595                           
  1596                           ;main.c: 78: initPD3535(0x40);
  1597  008A  3040               	movlw	64
  1598  008B  3186  261D  3180   	fcall	_initPD3535
  1599                           
  1600                           ;main.c: 79: _delay((unsigned long)((300)*(16000000/4000.0)));
  1601  008E  3007               	movlw	7
  1602  008F  0020               	movlb	0	; select bank0
  1603  0090  00D6               	movwf	??_main+2
  1604  0091  3017               	movlw	23
  1605  0092  00D5               	movwf	??_main+1
  1606  0093  306F               	movlw	111
  1607  0094  00D4               	movwf	??_main
  1608  0095                     u2497:	
  1609  0095  0BD4               	decfsz	??_main,f
  1610  0096  2895               	goto	u2497
  1611  0097  0BD5               	decfsz	??_main+1,f
  1612  0098  2895               	goto	u2497
  1613  0099  0BD6               	decfsz	??_main+2,f
  1614  009A  2895               	goto	u2497
  1615  009B  0000               	nop
  1616                           
  1617                           ;main.c: 80: initPD3535(0x00);
  1618  009C  3000               	movlw	0
  1619  009D  3186  261D  3180   	fcall	_initPD3535
  1620                           
  1621                           ;main.c: 81: _delay((unsigned long)((300)*(16000000/4000.0)));
  1622  00A0  3007               	movlw	7
  1623  00A1  0020               	movlb	0	; select bank0
  1624  00A2  00D6               	movwf	??_main+2
  1625  00A3  3017               	movlw	23
  1626  00A4  00D5               	movwf	??_main+1
  1627  00A5  306F               	movlw	111
  1628  00A6  00D4               	movwf	??_main
  1629  00A7                     u2507:	
  1630  00A7  0BD4               	decfsz	??_main,f
  1631  00A8  28A7               	goto	u2507
  1632  00A9  0BD5               	decfsz	??_main+1,f
  1633  00AA  28A7               	goto	u2507
  1634  00AB  0BD6               	decfsz	??_main+2,f
  1635  00AC  28A7               	goto	u2507
  1636  00AD  0000               	nop
  1637  00AE  3001               	movlw	1
  1638  00AF  0021               	movlb	1	; select bank1
  1639  00B0  07B3               	addwf	main@i^(0+128),f
  1640  00B1  3000               	movlw	0
  1641  00B2  3DB4               	addwfc	(main@i+1)^(0+128),f
  1642  00B3  0834               	movf	(main@i+1)^(0+128),w
  1643  00B4  3A80               	xorlw	128
  1644  00B5  0020               	movlb	0	; select bank0
  1645  00B6  00D4               	movwf	??_main
  1646  00B7  3080               	movlw	128
  1647  00B8  0254               	subwf	??_main,w
  1648  00B9  1D03               	skipz
  1649  00BA  28BE               	goto	u2425
  1650  00BB  3005               	movlw	5
  1651  00BC  0021               	movlb	1	; select bank1
  1652  00BD  0233               	subwf	main@i^(0+128),w
  1653  00BE                     u2425:	
  1654  00BE  1C03               	skipc
  1655  00BF  288A               	goto	l1888
  1656  00C0                     l1894:	
  1657                           
  1658                           ;main.c: 82: }
  1659                           ;main.c: 83: initPD3535(0x03);
  1660  00C0  3003               	movlw	3
  1661  00C1  3186  261D  3180   	fcall	_initPD3535
  1662                           
  1663                           ;main.c: 85: printVal("LUXM");
  1664  00C4  3000               	movlw	low (STR_1| (0+32768))
  1665  00C5  0020               	movlb	0	; select bank0
  1666  00C6  00A0               	movwf	printVal@str
  1667  00C7  3087               	movlw	high (STR_1| (0+32768))
  1668  00C8  00A1               	movwf	printVal@str+1
  1669  00C9  3185  2531  3180   	fcall	_printVal
  1670                           
  1671                           ;main.c: 90: INTCONbits.PEIE = 1;
  1672  00CC  170B               	bsf	11,6	;volatile
  1673                           
  1674                           ;main.c: 91: INTCONbits.GIE = 1;
  1675  00CD  178B               	bsf	11,7	;volatile
  1676                           
  1677                           ;main.c: 94: _delay((unsigned long)((500)*(16000000/4000.0)));
  1678  00CE  300B               	movlw	11
  1679  00CF  0020               	movlb	0	; select bank0
  1680  00D0  00D6               	movwf	??_main+2
  1681  00D1  3026               	movlw	38
  1682  00D2  00D5               	movwf	??_main+1
  1683  00D3  3066               	movlw	102
  1684  00D4  00D4               	movwf	??_main
  1685  00D5                     u2517:	
  1686  00D5  0BD4               	decfsz	??_main,f
  1687  00D6  28D5               	goto	u2517
  1688  00D7  0BD5               	decfsz	??_main+1,f
  1689  00D8  28D5               	goto	u2517
  1690  00D9  0BD6               	decfsz	??_main+2,f
  1691  00DA  28D5               	goto	u2517
  1692  00DB  3200               	nop2
  1693  00DC                     l1904:	
  1694                           ;main.c: 96: while (TRUE) {
  1695                           
  1696                           
  1697                           ;main.c: 99: if (bMedida == TRUE) {
  1698  00DC  0020               	movlb	0	; select bank0
  1699  00DD  086E               	movf	_bMedida,w	;volatile
  1700  00DE  3A01               	xorlw	1
  1701  00DF  1D03               	skipz
  1702  00E0  28DC               	goto	l1904
  1703                           
  1704                           ;main.c: 108: ad_res = 0;
  1705  00E1  3000               	movlw	0
  1706  00E2  00DF               	movwf	_ad_res+3
  1707  00E3  3000               	movlw	0
  1708  00E4  00DE               	movwf	_ad_res+2
  1709  00E5  3000               	movlw	0
  1710  00E6  00DD               	movwf	_ad_res+1
  1711  00E7  3000               	movlw	0
  1712  00E8  00DC               	movwf	_ad_res
  1713                           
  1714                           ;main.c: 110: for (i = 0; i < 32; i++) {
  1715  00E9  0021               	movlb	1	; select bank1
  1716  00EA  01B3               	clrf	main@i^(0+128)
  1717  00EB  01B4               	clrf	(main@i+1)^(0+128)
  1718  00EC  0834               	movf	(main@i+1)^(0+128),w
  1719  00ED  3A80               	xorlw	128
  1720  00EE  0020               	movlb	0	; select bank0
  1721  00EF  00D4               	movwf	??_main
  1722  00F0  3080               	movlw	128
  1723  00F1  0254               	subwf	??_main,w
  1724  00F2  1D03               	skipz
  1725  00F3  28F7               	goto	u2445
  1726  00F4  3020               	movlw	32
  1727  00F5  0021               	movlb	1	; select bank1
  1728  00F6  0233               	subwf	main@i^(0+128),w
  1729  00F7                     u2445:	
  1730  00F7  1803               	btfsc	3,0
  1731  00F8  2935               	goto	l1916
  1732  00F9                     l68:	
  1733                           
  1734                           ;main.c: 112: { ADCON0bits.GO_nDONE = 1; while(ADCON0bits.GO_nDONE); };
  1735  00F9  0021               	movlb	1	; select bank1
  1736  00FA  149D               	bsf	29,1	;volatile
  1737  00FB                     l70:	
  1738  00FB  189D               	btfsc	29,1	;volatile
  1739  00FC  28FB               	goto	l70
  1740                           
  1741                           ;main.c: 114: ad_res = ad_res + (ADRESL + 256 * ADRESH);
  1742  00FD  0020               	movlb	0	; select bank0
  1743  00FE  085C               	movf	_ad_res,w
  1744  00FF  00D4               	movwf	??_main
  1745  0100  085D               	movf	_ad_res+1,w
  1746  0101  00D5               	movwf	??_main+1
  1747  0102  085E               	movf	_ad_res+2,w
  1748  0103  00D6               	movwf	??_main+2
  1749  0104  085F               	movf	_ad_res+3,w
  1750  0105  00D7               	movwf	??_main+3
  1751  0106  0021               	movlb	1	; select bank1
  1752  0107  081B               	movf	27,w	;volatile
  1753  0108  0020               	movlb	0	; select bank0
  1754  0109  00D8               	movwf	??_main+4
  1755  010A  0021               	movlb	1	; select bank1
  1756  010B  081C               	movf	28,w	;volatile
  1757  010C  0020               	movlb	0	; select bank0
  1758  010D  00D9               	movwf	??_main+5
  1759  010E  3000               	movlw	0
  1760  010F  1BD9               	btfsc	??_main+5,7
  1761  0110  30FF               	movlw	255
  1762  0111  00DA               	movwf	??_main+6
  1763  0112  00DB               	movwf	??_main+7
  1764  0113  0858               	movf	??_main+4,w
  1765  0114  07D4               	addwf	??_main,f
  1766  0115  0859               	movf	??_main+5,w
  1767  0116  3DD5               	addwfc	??_main+1,f
  1768  0117  085A               	movf	??_main+6,w
  1769  0118  3DD6               	addwfc	??_main+2,f
  1770  0119  085B               	movf	??_main+7,w
  1771  011A  3DD7               	addwfc	??_main+3,f
  1772  011B  0857               	movf	??_main+3,w
  1773  011C  00DF               	movwf	_ad_res+3
  1774  011D  0856               	movf	??_main+2,w
  1775  011E  00DE               	movwf	_ad_res+2
  1776  011F  0855               	movf	??_main+1,w
  1777  0120  00DD               	movwf	_ad_res+1
  1778  0121  0854               	movf	??_main,w
  1779  0122  00DC               	movwf	_ad_res
  1780  0123  3001               	movlw	1
  1781  0124  0021               	movlb	1	; select bank1
  1782  0125  07B3               	addwf	main@i^(0+128),f
  1783  0126  3000               	movlw	0
  1784  0127  3DB4               	addwfc	(main@i+1)^(0+128),f
  1785  0128  0834               	movf	(main@i+1)^(0+128),w
  1786  0129  3A80               	xorlw	128
  1787  012A  0020               	movlb	0	; select bank0
  1788  012B  00D4               	movwf	??_main
  1789  012C  3080               	movlw	128
  1790  012D  0254               	subwf	??_main,w
  1791  012E  1D03               	skipz
  1792  012F  2933               	goto	u2465
  1793  0130  3020               	movlw	32
  1794  0131  0021               	movlb	1	; select bank1
  1795  0132  0233               	subwf	main@i^(0+128),w
  1796  0133                     u2465:	
  1797  0133  1C03               	skipc
  1798  0134  28F9               	goto	l68
  1799  0135                     l1916:	
  1800                           
  1801                           ;main.c: 115: }
  1802                           ;main.c: 117: ad_res /= 32;
  1803  0135  3005               	movlw	5
  1804  0136                     u2475:	
  1805  0136  0020               	movlb	0	; select bank0
  1806  0137  36DF               	lsrf	_ad_res+3,f
  1807  0138  0CDE               	rrf	_ad_res+2,f
  1808  0139  0CDD               	rrf	_ad_res+1,f
  1809  013A  0CDC               	rrf	_ad_res,f
  1810  013B  0B89               	decfsz	9,f
  1811  013C  2936               	goto	u2475
  1812                           
  1813                           ;main.c: 119: fvr=((float)ad_res/1024.0) * 4.9;
  1814  013D  30CD               	movlw	205
  1815  013E  00B6               	movwf	___ftmul@f1
  1816  013F  309C               	movlw	156
  1817  0140  00B7               	movwf	___ftmul@f1+1
  1818  0141  3040               	movlw	64
  1819  0142  00B8               	movwf	___ftmul@f1+2
  1820  0143  3000               	movlw	0
  1821  0144  00A6               	movwf	___ftdiv@f2
  1822  0145  3080               	movlw	128
  1823  0146  00A7               	movwf	___ftdiv@f2+1
  1824  0147  3044               	movlw	68
  1825  0148  00A8               	movwf	___ftdiv@f2+2
  1826  0149  085F               	movf	_ad_res+3,w
  1827  014A  00A3               	movwf	___lltoft@c+3
  1828  014B  085E               	movf	_ad_res+2,w
  1829  014C  00A2               	movwf	___lltoft@c+2
  1830  014D  085D               	movf	_ad_res+1,w
  1831  014E  00A1               	movwf	___lltoft@c+1
  1832  014F  085C               	movf	_ad_res,w
  1833  0150  00A0               	movwf	___lltoft@c
  1834  0151  3185  25CD  3180   	fcall	___lltoft
  1835  0154  0020               	movlb	0	; select bank0
  1836  0155  0820               	movf	?___lltoft,w
  1837  0156  00A9               	movwf	___ftdiv@f1
  1838  0157  0821               	movf	?___lltoft+1,w
  1839  0158  00AA               	movwf	___ftdiv@f1+1
  1840  0159  0822               	movf	?___lltoft+2,w
  1841  015A  00AB               	movwf	___ftdiv@f1+2
  1842  015B  3182  2282  3180   	fcall	___ftdiv
  1843  015E  0020               	movlb	0	; select bank0
  1844  015F  0826               	movf	?___ftdiv,w
  1845  0160  00B9               	movwf	___ftmul@f2
  1846  0161  0827               	movf	?___ftdiv+1,w
  1847  0162  00BA               	movwf	___ftmul@f2+1
  1848  0163  0828               	movf	?___ftdiv+2,w
  1849  0164  00BB               	movwf	___ftmul@f2+2
  1850  0165  3181  21CE  3180   	fcall	___ftmul
  1851  0168  0020               	movlb	0	; select bank0
  1852  0169  0836               	movf	?___ftmul,w
  1853  016A  0021               	movlb	1	; select bank1
  1854  016B  00A8               	movwf	_fvr^(0+128)
  1855  016C  0020               	movlb	0	; select bank0
  1856  016D  0837               	movf	?___ftmul+1,w
  1857  016E  0021               	movlb	1	; select bank1
  1858  016F  00A9               	movwf	(_fvr+1)^(0+128)
  1859  0170  0020               	movlb	0	; select bank0
  1860  0171  0838               	movf	?___ftmul+2,w
  1861  0172  0021               	movlb	1	; select bank1
  1862  0173  00AA               	movwf	(_fvr+2)^(0+128)
  1863                           
  1864                           ;main.c: 125: lux = (vr / 1e4) * 2;
  1865  0174  0020               	movlb	0	; select bank0
  1866  0175  0867               	movf	_vr+3,w
  1867  0176  00A3               	movwf	___lltoft@c+3
  1868  0177  0866               	movf	_vr+2,w
  1869  0178  00A2               	movwf	___lltoft@c+2
  1870  0179  0865               	movf	_vr+1,w
  1871  017A  00A1               	movwf	___lltoft@c+1
  1872  017B  0864               	movf	_vr,w
  1873  017C  00A0               	movwf	___lltoft@c
  1874  017D  3185  25CD  3180   	fcall	___lltoft
  1875  0180  0020               	movlb	0	; select bank0
  1876  0181  0820               	movf	?___lltoft,w
  1877  0182  00A9               	movwf	___ftdiv@f1
  1878  0183  0821               	movf	?___lltoft+1,w
  1879  0184  00AA               	movwf	___ftdiv@f1+1
  1880  0185  0822               	movf	?___lltoft+2,w
  1881  0186  00AB               	movwf	___ftdiv@f1+2
  1882  0187  3040               	movlw	64
  1883  0188  00A6               	movwf	___ftdiv@f2
  1884  0189  301C               	movlw	28
  1885  018A  00A7               	movwf	___ftdiv@f2+1
  1886  018B  3046               	movlw	70
  1887  018C  00A8               	movwf	___ftdiv@f2+2
  1888  018D  3182  2282  3180   	fcall	___ftdiv
  1889  0190  0020               	movlb	0	; select bank0
  1890  0191  0826               	movf	?___ftdiv,w
  1891  0192  00B9               	movwf	___ftmul@f2
  1892  0193  0827               	movf	?___ftdiv+1,w
  1893  0194  00BA               	movwf	___ftmul@f2+1
  1894  0195  0828               	movf	?___ftdiv+2,w
  1895  0196  00BB               	movwf	___ftmul@f2+2
  1896  0197  3000               	movlw	0
  1897  0198  00B6               	movwf	___ftmul@f1
  1898  0199  3000               	movlw	0
  1899  019A  00B7               	movwf	___ftmul@f1+1
  1900  019B  3040               	movlw	64
  1901  019C  00B8               	movwf	___ftmul@f1+2
  1902  019D  3181  21CE  3180   	fcall	___ftmul
  1903  01A0  0020               	movlb	0	; select bank0
  1904  01A1  0836               	movf	?___ftmul,w
  1905  01A2  00C6               	movwf	___fttol@f1
  1906  01A3  0837               	movf	?___ftmul+1,w
  1907  01A4  00C7               	movwf	___fttol@f1+1
  1908  01A5  0838               	movf	?___ftmul+2,w
  1909  01A6  00C8               	movwf	___fttol@f1+2
  1910  01A7  3183  23B4  3180   	fcall	___fttol
  1911  01AA  0020               	movlb	0	; select bank0
  1912  01AB  0849               	movf	?___fttol+3,w
  1913  01AC  00E3               	movwf	_lux+3
  1914  01AD  0848               	movf	?___fttol+2,w
  1915  01AE  00E2               	movwf	_lux+2
  1916  01AF  0847               	movf	?___fttol+1,w
  1917  01B0  00E1               	movwf	_lux+1
  1918  01B1  0846               	movf	?___fttol,w
  1919  01B2  00E0               	movwf	_lux
  1920                           
  1921                           ;main.c: 126: ltoa(Resul, lux, 10);
  1922  01B3  0863               	movf	_lux+3,w
  1923  01B4  00B6               	movwf	ltoa@val+3
  1924  01B5  0862               	movf	_lux+2,w
  1925  01B6  00B5               	movwf	ltoa@val+2
  1926  01B7  0861               	movf	_lux+1,w
  1927  01B8  00B4               	movwf	ltoa@val+1
  1928  01B9  0860               	movf	_lux,w
  1929  01BA  00B3               	movwf	ltoa@val
  1930  01BB  300A               	movlw	10
  1931  01BC  00B7               	movwf	ltoa@base
  1932  01BD  3000               	movlw	0
  1933  01BE  00B8               	movwf	ltoa@base+1
  1934  01BF  30AE               	movlw	_Resul& (0+255)
  1935  01C0  3185  2571  3180   	fcall	_ltoa
  1936                           
  1937                           ;main.c: 127: printVal(Resul);
  1938  01C3  30AE               	movlw	low _Resul
  1939  01C4  0020               	movlb	0	; select bank0
  1940  01C5  00A0               	movwf	printVal@str
  1941  01C6  3000               	movlw	high _Resul
  1942  01C7  00A1               	movwf	printVal@str+1
  1943  01C8  3185  2531  3180   	fcall	_printVal
  1944                           
  1945                           ;main.c: 129: bMedida = FALSE;
  1946  01CB  0020               	movlb	0	; select bank0
  1947  01CC  01EE               	clrf	_bMedida	;volatile
  1948  01CD  28DC               	goto	l1904
  1949  01CE                     __end_of_main:	
  1950                           
  1951                           	psect	text1
  1952  0531                     __ptext1:	
  1953 ;; *************** function _printVal *****************
  1954 ;; Defined at:
  1955 ;;		line 91 in file "PD3535.c"
  1956 ;; Parameters:    Size  Location     Type
  1957 ;;  str             2    0[BANK0 ] PTR unsigned char 
  1958 ;;		 -> Resul(5), STR_1(5), 
  1959 ;; Auto vars:     Size  Location     Type
  1960 ;;  i               2    3[BANK0 ] int 
  1961 ;; Return value:  Size  Location     Type
  1962 ;;		None               void
  1963 ;; Registers used:
  1964 ;;		wreg, fsr0l, fsr0h, status,2, status,0, pclath, cstack
  1965 ;; Tracked objects:
  1966 ;;		On entry : 0/0
  1967 ;;		On exit  : 0/0
  1968 ;;		Unchanged: 0/0
  1969 ;; Data sizes:     COMMON   BANK0   BANK1   BANK2   BANK3   BANK4   BANK5   BANK6   BANK7   BANK8   BANK9  BANK10  BANK1
      +1  BANK12
  1970 ;;      Params:         0       2       0       0       0       0       0       0       0       0       0       0       
      +0       0
  1971 ;;      Locals:         0       2       0       0       0       0       0       0       0       0       0       0       
      +0       0
  1972 ;;      Temps:          0       1       0       0       0       0       0       0       0       0       0       0       
      +0       0
  1973 ;;      Totals:         0       5       0       0       0       0       0       0       0       0       0       0       
      +0       0
  1974 ;;Total ram usage:        5 bytes
  1975 ;; Hardware stack levels used:    1
  1976 ;; Hardware stack levels required when called:    3
  1977 ;; This function calls:
  1978 ;;		_disChar
  1979 ;; This function is called by:
  1980 ;;		_main
  1981 ;; This function uses a non-reentrant model
  1982 ;;
  1983                           
  1984                           
  1985                           ;psect for function _printVal
  1986  0531                     _printVal:	
  1987                           
  1988                           ;PD3535.c: 93: int i;
  1989                           ;PD3535.c: 95: i = 0;
  1990                           
  1991                           ;incstack = 0
  1992                           ; Regs used in _printVal: [wreg-fsr0h+status,2+status,0+pclath+cstack]
  1993  0531  0020               	movlb	0	; select bank0
  1994  0532  01A3               	clrf	printVal@i
  1995  0533  01A4               	clrf	printVal@i+1
  1996  0534                     l1676:	
  1997                           ;PD3535.c: 96: while (*str) {
  1998                           
  1999  0534  0820               	movf	printVal@str,w
  2000  0535  0084               	movwf	4
  2001  0536  0821               	movf	printVal@str+1,w
  2002  0537  0085               	movwf	5
  2003  0538  0800               	movf	0,w	;code access
  2004  0539  3800               	iorlw	0
  2005  053A  1903               	btfsc	3,2
  2006  053B  2D4E               	goto	l1678
  2007                           
  2008                           ;PD3535.c: 98: disChar(*str++);
  2009  053C  0820               	movf	printVal@str,w
  2010  053D  0084               	movwf	4
  2011  053E  0821               	movf	printVal@str+1,w
  2012  053F  0085               	movwf	5
  2013  0540  0800               	movf	0,w	;code access
  2014  0541  3185  25F7  3185   	fcall	_disChar
  2015  0544  3001               	movlw	1
  2016  0545  0020               	movlb	0	; select bank0
  2017  0546  07A0               	addwf	printVal@str,f
  2018  0547  3000               	movlw	0
  2019  0548  3DA1               	addwfc	printVal@str+1,f
  2020                           
  2021                           ;PD3535.c: 100: i++;
  2022  0549  3001               	movlw	1
  2023  054A  07A3               	addwf	printVal@i,f
  2024  054B  3000               	movlw	0
  2025  054C  3DA4               	addwfc	printVal@i+1,f
  2026  054D  2D34               	goto	l1676
  2027  054E                     l1678:	
  2028                           
  2029                           ;PD3535.c: 102: }
  2030                           ;PD3535.c: 104: if (i < 4) {
  2031  054E  0824               	movf	printVal@i+1,w
  2032  054F  3A80               	xorlw	128
  2033  0550  00A2               	movwf	??_printVal
  2034  0551  3080               	movlw	128
  2035  0552  0222               	subwf	??_printVal,w
  2036  0553  1D03               	skipz
  2037  0554  2D57               	goto	u2055
  2038  0555  3004               	movlw	4
  2039  0556  0223               	subwf	printVal@i,w
  2040  0557                     u2055:	
  2041  0557  1803               	skipnc
  2042  0558  0008               	return
  2043                           
  2044                           ;PD3535.c: 105: if (i == 3)
  2045  0559  3003               	movlw	3
  2046  055A  0020               	movlb	0	; select bank0
  2047  055B  0623               	xorwf	printVal@i,w
  2048  055C  0424               	iorwf	printVal@i+1,w
  2049  055D  1D03               	skipz
  2050  055E  2D63               	goto	l1684
  2051                           
  2052                           ;PD3535.c: 106: disChar('L');
  2053  055F  304C               	movlw	76
  2054  0560  3185  25F7  3185   	fcall	_disChar
  2055  0563                     l1684:	
  2056                           
  2057                           ;PD3535.c: 107: if (i == 2) {
  2058  0563  3002               	movlw	2
  2059  0564  0020               	movlb	0	; select bank0
  2060  0565  0623               	xorwf	printVal@i,w
  2061  0566  0424               	iorwf	printVal@i+1,w
  2062  0567  1D03               	skipz
  2063  0568  0008               	return
  2064                           
  2065                           ;PD3535.c: 108: disChar(' ');
  2066  0569  3020               	movlw	32
  2067  056A  3185  25F7  3185   	fcall	_disChar
  2068                           
  2069                           ;PD3535.c: 109: disChar('L');
  2070  056D  304C               	movlw	76
  2071  056E  3185  25F7         	fcall	_disChar
  2072  0570  0008               	return
  2073  0571                     __end_of_printVal:	
  2074                           
  2075                           	psect	text2
  2076  05F7                     __ptext2:	
  2077 ;; *************** function _disChar *****************
  2078 ;; Defined at:
  2079 ;;		line 64 in file "PD3535.c"
  2080 ;; Parameters:    Size  Location     Type
  2081 ;;  ch              1    wreg     unsigned char 
  2082 ;; Auto vars:     Size  Location     Type
  2083 ;;  ch              1    7[COMMON] unsigned char 
  2084 ;;  buff            2    8[COMMON] struct .
  2085 ;; Return value:  Size  Location     Type
  2086 ;;		None               void
  2087 ;; Registers used:
  2088 ;;		wreg, status,2, status,0, pclath, cstack
  2089 ;; Tracked objects:
  2090 ;;		On entry : 0/0
  2091 ;;		On exit  : 0/0
  2092 ;;		Unchanged: 0/0
  2093 ;; Data sizes:     COMMON   BANK0   BANK1   BANK2   BANK3   BANK4   BANK5   BANK6   BANK7   BANK8   BANK9  BANK10  BANK1
      +1  BANK12
  2094 ;;      Params:         0       0       0       0       0       0       0       0       0       0       0       0       
      +0       0
  2095 ;;      Locals:         3       0       0       0       0       0       0       0       0       0       0       0       
      +0       0
  2096 ;;      Temps:          1       0       0       0       0       0       0       0       0       0       0       0       
      +0       0
  2097 ;;      Totals:         4       0       0       0       0       0       0       0       0       0       0       0       
      +0       0
  2098 ;;Total ram usage:        4 bytes
  2099 ;; Hardware stack levels used:    1
  2100 ;; Hardware stack levels required when called:    2
  2101 ;; This function calls:
  2102 ;;		_snd4094
  2103 ;; This function is called by:
  2104 ;;		_printVal
  2105 ;; This function uses a non-reentrant model
  2106 ;;
  2107                           
  2108                           
  2109                           ;psect for function _disChar
  2110  05F7                     _disChar:	
  2111                           
  2112                           ;incstack = 0
  2113                           ; Regs used in _disChar: [wreg+status,2+status,0+pclath+cstack]
  2114                           ;disChar@ch stored from wreg
  2115  05F7  00F7               	movwf	disChar@ch
  2116                           
  2117                           ;PD3535.c: 65: static int pos = 7;
  2118                           ;PD3535.c: 66: WORD_VAL buff;
  2119                           ;PD3535.c: 67: buff.v[0] = ch;
  2120  05F8  0877               	movf	disChar@ch,w
  2121  05F9  00F6               	movwf	??_disChar
  2122  05FA  0876               	movf	??_disChar,w
  2123  05FB  00F8               	movwf	disChar@buff
  2124                           
  2125                           ;PD3535.c: 68: buff.v[1] = pos;
  2126  05FC  087A               	movf	disChar@pos,w
  2127  05FD  00F6               	movwf	??_disChar
  2128  05FE  0876               	movf	??_disChar,w
  2129  05FF  00F9               	movwf	disChar@buff+1
  2130                           
  2131                           ;PD3535.c: 69: snd4094(buff);
  2132  0600  0879               	movf	disChar@buff+1,w
  2133  0601  01F3               	clrf	snd4094@dato+1
  2134  0602  07F3               	addwf	snd4094@dato+1,f
  2135  0603  0878               	movf	disChar@buff,w
  2136  0604  01F2               	clrf	snd4094@dato
  2137  0605  07F2               	addwf	snd4094@dato,f
  2138  0606  3185  25A1  3185   	fcall	_snd4094
  2139                           
  2140                           ;PD3535.c: 70: if (--pos < 4)
  2141  0609  30FF               	movlw	255
  2142  060A  07FA               	addwf	disChar@pos,f
  2143  060B  30FF               	movlw	255
  2144  060C  3DFB               	addwfc	disChar@pos+1,f
  2145  060D  087B               	movf	disChar@pos+1,w
  2146  060E  3A80               	xorlw	128
  2147  060F  00F6               	movwf	??_disChar
  2148  0610  3080               	movlw	128
  2149  0611  0276               	subwf	??_disChar,w
  2150  0612  1D03               	skipz
  2151  0613  2E16               	goto	u1895
  2152  0614  3004               	movlw	4
  2153  0615  027A               	subwf	disChar@pos,w
  2154  0616                     u1895:	
  2155  0616  1803               	skipnc
  2156  0617  0008               	return
  2157                           
  2158                           ;PD3535.c: 71: pos = 7;
  2159  0618  3007               	movlw	7
  2160  0619  00FA               	movwf	disChar@pos
  2161  061A  3000               	movlw	0
  2162  061B  00FB               	movwf	disChar@pos+1
  2163  061C  0008               	return
  2164  061D                     __end_of_disChar:	
  2165                           
  2166                           	psect	text3
  2167  0571                     __ptext3:	
  2168 ;; *************** function _ltoa *****************
  2169 ;; Defined at:
  2170 ;;		line 7 in file "C:\Program Files\Microchip\xc8\v1.33\sources\common\ltoa.c"
  2171 ;; Parameters:    Size  Location     Type
  2172 ;;  buf             1    wreg     PTR unsigned char 
  2173 ;;		 -> Resul(5), 
  2174 ;;  val             4   19[BANK0 ] long 
  2175 ;;  base            2   23[BANK0 ] int 
  2176 ;; Auto vars:     Size  Location     Type
  2177 ;;  buf             1   27[BANK0 ] PTR unsigned char 
  2178 ;;		 -> Resul(5), 
  2179 ;;  cp              1   26[BANK0 ] PTR unsigned char 
  2180 ;;		 -> Resul(5), 
  2181 ;; Return value:  Size  Location     Type
  2182 ;;                  1    wreg      PTR unsigned char 
  2183 ;; Registers used:
  2184 ;;		wreg, fsr1l, fsr1h, status,2, status,0, pclath, cstack
  2185 ;; Tracked objects:
  2186 ;;		On entry : 0/0
  2187 ;;		On exit  : 0/0
  2188 ;;		Unchanged: 0/0
  2189 ;; Data sizes:     COMMON   BANK0   BANK1   BANK2   BANK3   BANK4   BANK5   BANK6   BANK7   BANK8   BANK9  BANK10  BANK1
      +1  BANK12
  2190 ;;      Params:         0       6       0       0       0       0       0       0       0       0       0       0       
      +0       0
  2191 ;;      Locals:         0       2       0       0       0       0       0       0       0       0       0       0       
      +0       0
  2192 ;;      Temps:          0       1       0       0       0       0       0       0       0       0       0       0       
      +0       0
  2193 ;;      Totals:         0       9       0       0       0       0       0       0       0       0       0       0       
      +0       0
  2194 ;;Total ram usage:        9 bytes
  2195 ;; Hardware stack levels used:    1
  2196 ;; Hardware stack levels required when called:    3
  2197 ;; This function calls:
  2198 ;;		_ultoa
  2199 ;; This function is called by:
  2200 ;;		_main
  2201 ;; This function uses a non-reentrant model
  2202 ;;
  2203                           
  2204                           
  2205                           ;psect for function _ltoa
  2206  0571                     _ltoa:	
  2207                           
  2208                           ;incstack = 0
  2209                           ; Regs used in _ltoa: [wreg+fsr1l+fsr1h+status,2+status,0+pclath+cstack]
  2210                           ;ltoa@buf stored from wreg
  2211  0571  0020               	movlb	0	; select bank0
  2212  0572  00BB               	movwf	ltoa@buf
  2213  0573  083B               	movf	ltoa@buf,w
  2214  0574  00B9               	movwf	??_ltoa
  2215  0575  0839               	movf	??_ltoa,w
  2216  0576  00BA               	movwf	ltoa@cp
  2217  0577  1FB6               	btfss	ltoa@val+3,7
  2218  0578  2D8F               	goto	l1698
  2219  0579  302D               	movlw	45
  2220  057A  00B9               	movwf	??_ltoa
  2221  057B  083B               	movf	ltoa@buf,w
  2222  057C  0086               	movwf	6
  2223  057D  0187               	clrf	7
  2224  057E  0839               	movf	??_ltoa,w
  2225  057F  0081               	movwf	1
  2226  0580  3001               	movlw	1
  2227  0581  00B9               	movwf	??_ltoa
  2228  0582  0839               	movf	??_ltoa,w
  2229  0583  07BB               	addwf	ltoa@buf,f
  2230  0584  09B3               	comf	ltoa@val,f
  2231  0585  09B4               	comf	ltoa@val+1,f
  2232  0586  09B5               	comf	ltoa@val+2,f
  2233  0587  09B6               	comf	ltoa@val+3,f
  2234  0588  0AB3               	incf	ltoa@val,f
  2235  0589  1903               	skipnz
  2236  058A  0AB4               	incf	ltoa@val+1,f
  2237  058B  1903               	skipnz
  2238  058C  0AB5               	incf	ltoa@val+2,f
  2239  058D  1903               	skipnz
  2240  058E  0AB6               	incf	ltoa@val+3,f
  2241  058F                     l1698:	
  2242  058F  0836               	movf	ltoa@val+3,w
  2243  0590  00A9               	movwf	ultoa@val+3
  2244  0591  0835               	movf	ltoa@val+2,w
  2245  0592  00A8               	movwf	ultoa@val+2
  2246  0593  0834               	movf	ltoa@val+1,w
  2247  0594  00A7               	movwf	ultoa@val+1
  2248  0595  0833               	movf	ltoa@val,w
  2249  0596  00A6               	movwf	ultoa@val
  2250  0597  0838               	movf	ltoa@base+1,w
  2251  0598  01AB               	clrf	ultoa@base+1
  2252  0599  07AB               	addwf	ultoa@base+1,f
  2253  059A  0837               	movf	ltoa@base,w
  2254  059B  01AA               	clrf	ultoa@base
  2255  059C  07AA               	addwf	ultoa@base,f
  2256  059D  083B               	movf	ltoa@buf,w
  2257  059E  3183  232B         	fcall	_ultoa
  2258  05A0  0008               	return
  2259  05A1                     __end_of_ltoa:	
  2260                           ;	Return value of _ltoa is never used
  2261                           
  2262                           
  2263                           	psect	text4
  2264  032B                     __ptext4:	
  2265 ;; *************** function _ultoa *****************
  2266 ;; Defined at:
  2267 ;;		line 32 in file "C:\Program Files\Microchip\xc8\v1.33\sources\common\ltoa.c"
  2268 ;; Parameters:    Size  Location     Type
  2269 ;;  buf             1    wreg     PTR unsigned char 
  2270 ;;		 -> Resul(5), 
  2271 ;;  val             4    6[BANK0 ] unsigned long 
  2272 ;;  base            2   10[BANK0 ] int 
  2273 ;; Auto vars:     Size  Location     Type
  2274 ;;  buf             1   18[BANK0 ] PTR unsigned char 
  2275 ;;		 -> Resul(5), 
  2276 ;;  v               4   13[BANK0 ] unsigned long 
  2277 ;;  c               1   17[BANK0 ] unsigned char 
  2278 ;; Return value:  Size  Location     Type
  2279 ;;                  1    wreg      PTR unsigned char 
  2280 ;; Registers used:
  2281 ;;		wreg, fsr1l, fsr1h, status,2, status,0, pclath, cstack
  2282 ;; Tracked objects:
  2283 ;;		On entry : 0/0
  2284 ;;		On exit  : 0/0
  2285 ;;		Unchanged: 0/0
  2286 ;; Data sizes:     COMMON   BANK0   BANK1   BANK2   BANK3   BANK4   BANK5   BANK6   BANK7   BANK8   BANK9  BANK10  BANK1
      +1  BANK12
  2287 ;;      Params:         0       6       0       0       0       0       0       0       0       0       0       0       
      +0       0
  2288 ;;      Locals:         0       6       0       0       0       0       0       0       0       0       0       0       
      +0       0
  2289 ;;      Temps:          0       1       0       0       0       0       0       0       0       0       0       0       
      +0       0
  2290 ;;      Totals:         0      13       0       0       0       0       0       0       0       0       0       0       
      +0       0
  2291 ;;Total ram usage:       13 bytes
  2292 ;; Hardware stack levels used:    1
  2293 ;; Hardware stack levels required when called:    2
  2294 ;; This function calls:
  2295 ;;		___lldiv
  2296 ;;		___llmod
  2297 ;; This function is called by:
  2298 ;;		_ltoa
  2299 ;; This function uses a non-reentrant model
  2300 ;;
  2301                           
  2302                           
  2303                           ;psect for function _ultoa
  2304  032B                     _ultoa:	
  2305                           
  2306                           ;incstack = 0
  2307                           ; Regs used in _ultoa: [wreg+fsr1l+fsr1h+status,2+status,0+pclath+cstack]
  2308                           ;ultoa@buf stored from wreg
  2309  032B  0020               	movlb	0	; select bank0
  2310  032C  00B2               	movwf	ultoa@buf
  2311  032D  0829               	movf	ultoa@val+3,w
  2312  032E  00B0               	movwf	ultoa@v+3
  2313  032F  0828               	movf	ultoa@val+2,w
  2314  0330  00AF               	movwf	ultoa@v+2
  2315  0331  0827               	movf	ultoa@val+1,w
  2316  0332  00AE               	movwf	ultoa@v+1
  2317  0333  0826               	movf	ultoa@val,w
  2318  0334  00AD               	movwf	ultoa@v
  2319  0335                     l1636:	
  2320  0335  082A               	movf	ultoa@base,w
  2321  0336  00F2               	movwf	___lldiv@divisor
  2322  0337  082B               	movf	ultoa@base+1,w
  2323  0338  00F3               	movwf	___lldiv@divisor+1
  2324  0339  0D89               	rlf	9,f
  2325  033A  3B89               	subwfb	9,f
  2326  033B  0989               	comf	9,f
  2327  033C  00F4               	movwf	___lldiv@divisor+2
  2328  033D  00F5               	movwf	___lldiv@divisor+3
  2329  033E  0830               	movf	ultoa@v+3,w
  2330  033F  00F9               	movwf	___lldiv@dividend+3
  2331  0340  082F               	movf	ultoa@v+2,w
  2332  0341  00F8               	movwf	___lldiv@dividend+2
  2333  0342  082E               	movf	ultoa@v+1,w
  2334  0343  00F7               	movwf	___lldiv@dividend+1
  2335  0344  082D               	movf	ultoa@v,w
  2336  0345  00F6               	movwf	___lldiv@dividend
  2337  0346  3184  249B  3183   	fcall	___lldiv
  2338  0349  0875               	movf	?___lldiv+3,w
  2339  034A  0020               	movlb	0	; select bank0
  2340  034B  00B0               	movwf	ultoa@v+3
  2341  034C  0874               	movf	?___lldiv+2,w
  2342  034D  00AF               	movwf	ultoa@v+2
  2343  034E  0873               	movf	?___lldiv+1,w
  2344  034F  00AE               	movwf	ultoa@v+1
  2345  0350  0872               	movf	?___lldiv,w
  2346  0351  00AD               	movwf	ultoa@v
  2347  0352  3001               	movlw	1
  2348  0353  00AC               	movwf	??_ultoa
  2349  0354  082C               	movf	??_ultoa,w
  2350  0355  07B2               	addwf	ultoa@buf,f
  2351  0356  0830               	movf	ultoa@v+3,w
  2352  0357  042F               	iorwf	ultoa@v+2,w
  2353  0358  042E               	iorwf	ultoa@v+1,w
  2354  0359  042D               	iorwf	ultoa@v,w
  2355  035A  1D03               	skipz
  2356  035B  2B35               	goto	l1636
  2357  035C  0832               	movf	ultoa@buf,w
  2358  035D  0086               	movwf	6
  2359  035E  0187               	clrf	7
  2360  035F  0181               	clrf	1
  2361  0360  3001               	movlw	1
  2362  0361  02B2               	subwf	ultoa@buf,f
  2363  0362                     l1646:	
  2364  0362  082A               	movf	ultoa@base,w
  2365  0363  00F2               	movwf	___llmod@divisor
  2366  0364  082B               	movf	ultoa@base+1,w
  2367  0365  00F3               	movwf	___llmod@divisor+1
  2368  0366  0D89               	rlf	9,f
  2369  0367  3B89               	subwfb	9,f
  2370  0368  0989               	comf	9,f
  2371  0369  00F4               	movwf	___llmod@divisor+2
  2372  036A  00F5               	movwf	___llmod@divisor+3
  2373  036B  0829               	movf	ultoa@val+3,w
  2374  036C  00F9               	movwf	___llmod@dividend+3
  2375  036D  0828               	movf	ultoa@val+2,w
  2376  036E  00F8               	movwf	___llmod@dividend+2
  2377  036F  0827               	movf	ultoa@val+1,w
  2378  0370  00F7               	movwf	___llmod@dividend+1
  2379  0371  0826               	movf	ultoa@val,w
  2380  0372  00F6               	movwf	___llmod@dividend
  2381  0373  3184  24EE  3183   	fcall	___llmod
  2382  0376  0872               	movf	?___llmod,w
  2383  0377  0020               	movlb	0	; select bank0
  2384  0378  00AC               	movwf	??_ultoa
  2385  0379  082C               	movf	??_ultoa,w
  2386  037A  00B1               	movwf	ultoa@c
  2387  037B  082A               	movf	ultoa@base,w
  2388  037C  00F2               	movwf	___lldiv@divisor
  2389  037D  082B               	movf	ultoa@base+1,w
  2390  037E  00F3               	movwf	___lldiv@divisor+1
  2391  037F  0D89               	rlf	9,f
  2392  0380  3B89               	subwfb	9,f
  2393  0381  0989               	comf	9,f
  2394  0382  00F4               	movwf	___lldiv@divisor+2
  2395  0383  00F5               	movwf	___lldiv@divisor+3
  2396  0384  0829               	movf	ultoa@val+3,w
  2397  0385  00F9               	movwf	___lldiv@dividend+3
  2398  0386  0828               	movf	ultoa@val+2,w
  2399  0387  00F8               	movwf	___lldiv@dividend+2
  2400  0388  0827               	movf	ultoa@val+1,w
  2401  0389  00F7               	movwf	___lldiv@dividend+1
  2402  038A  0826               	movf	ultoa@val,w
  2403  038B  00F6               	movwf	___lldiv@dividend
  2404  038C  3184  249B  3183   	fcall	___lldiv
  2405  038F  0875               	movf	?___lldiv+3,w
  2406  0390  0020               	movlb	0	; select bank0
  2407  0391  00A9               	movwf	ultoa@val+3
  2408  0392  0874               	movf	?___lldiv+2,w
  2409  0393  00A8               	movwf	ultoa@val+2
  2410  0394  0873               	movf	?___lldiv+1,w
  2411  0395  00A7               	movwf	ultoa@val+1
  2412  0396  0872               	movf	?___lldiv,w
  2413  0397  00A6               	movwf	ultoa@val
  2414  0398  300A               	movlw	10
  2415  0399  0231               	subwf	ultoa@c,w
  2416  039A  1C03               	skipc
  2417  039B  2BA0               	goto	l558
  2418  039C  3007               	movlw	7
  2419  039D  00AC               	movwf	??_ultoa
  2420  039E  082C               	movf	??_ultoa,w
  2421  039F  07B1               	addwf	ultoa@c,f
  2422  03A0                     l558:	
  2423  03A0  3030               	movlw	48
  2424  03A1  00AC               	movwf	??_ultoa
  2425  03A2  082C               	movf	??_ultoa,w
  2426  03A3  07B1               	addwf	ultoa@c,f
  2427  03A4  0831               	movf	ultoa@c,w
  2428  03A5  00AC               	movwf	??_ultoa
  2429  03A6  0832               	movf	ultoa@buf,w
  2430  03A7  0086               	movwf	6
  2431  03A8  0187               	clrf	7
  2432  03A9  082C               	movf	??_ultoa,w
  2433  03AA  0081               	movwf	1
  2434  03AB  3001               	movlw	1
  2435  03AC  02B2               	subwf	ultoa@buf,f
  2436  03AD  0829               	movf	ultoa@val+3,w
  2437  03AE  0428               	iorwf	ultoa@val+2,w
  2438  03AF  0427               	iorwf	ultoa@val+1,w
  2439  03B0  0426               	iorwf	ultoa@val,w
  2440  03B1  1903               	btfsc	3,2
  2441                           
  2442                           ;	Return value of _ultoa is never used
  2443  03B2  0008               	return
  2444  03B3  2B62               	goto	l1646
  2445  03B4                     __end_of_ultoa:	
  2446                           
  2447                           	psect	text5
  2448  04EE                     __ptext5:	
  2449 ;; *************** function ___llmod *****************
  2450 ;; Defined at:
  2451 ;;		line 6 in file "C:\Program Files\Microchip\xc8\v1.33\sources\common\llmod.c"
  2452 ;; Parameters:    Size  Location     Type
  2453 ;;  divisor         4    2[COMMON] unsigned long 
  2454 ;;  dividend        4    6[COMMON] unsigned long 
  2455 ;; Auto vars:     Size  Location     Type
  2456 ;;  counter         1    1[BANK0 ] unsigned char 
  2457 ;; Return value:  Size  Location     Type
  2458 ;;                  4    2[COMMON] unsigned long 
  2459 ;; Registers used:
  2460 ;;		wreg, status,2, status,0
  2461 ;; Tracked objects:
  2462 ;;		On entry : 0/0
  2463 ;;		On exit  : 0/0
  2464 ;;		Unchanged: 0/0
  2465 ;; Data sizes:     COMMON   BANK0   BANK1   BANK2   BANK3   BANK4   BANK5   BANK6   BANK7   BANK8   BANK9  BANK10  BANK1
      +1  BANK12
  2466 ;;      Params:         8       0       0       0       0       0       0       0       0       0       0       0       
      +0       0
  2467 ;;      Locals:         0       1       0       0       0       0       0       0       0       0       0       0       
      +0       0
  2468 ;;      Temps:          0       1       0       0       0       0       0       0       0       0       0       0       
      +0       0
  2469 ;;      Totals:         8       2       0       0       0       0       0       0       0       0       0       0       
      +0       0
  2470 ;;Total ram usage:       10 bytes
  2471 ;; Hardware stack levels used:    1
  2472 ;; Hardware stack levels required when called:    1
  2473 ;; This function calls:
  2474 ;;		Nothing
  2475 ;; This function is called by:
  2476 ;;		_ultoa
  2477 ;; This function uses a non-reentrant model
  2478 ;;
  2479                           
  2480                           
  2481                           ;psect for function ___llmod
  2482  04EE                     ___llmod:	
  2483                           
  2484                           ;incstack = 0
  2485                           ; Regs used in ___llmod: [wreg+status,2+status,0]
  2486  04EE  0875               	movf	___llmod@divisor+3,w
  2487  04EF  0474               	iorwf	___llmod@divisor+2,w
  2488  04F0  0473               	iorwf	___llmod@divisor+1,w
  2489  04F1  0472               	iorwf	___llmod@divisor,w
  2490  04F2  1903               	skipnz
  2491  04F3  2D28               	goto	l1592
  2492  04F4  0020               	movlb	0	; select bank0
  2493  04F5  01A1               	clrf	___llmod@counter
  2494  04F6  0AA1               	incf	___llmod@counter,f
  2495  04F7                     l1582:	
  2496  04F7  1BF5               	btfsc	___llmod@divisor+3,7
  2497  04F8  2D05               	goto	l1584
  2498  04F9  3001               	movlw	1
  2499  04FA                     u1845:	
  2500  04FA  35F2               	lslf	___llmod@divisor,f
  2501  04FB  0DF3               	rlf	___llmod@divisor+1,f
  2502  04FC  0DF4               	rlf	___llmod@divisor+2,f
  2503  04FD  0DF5               	rlf	___llmod@divisor+3,f
  2504  04FE  0B89               	decfsz	9,f
  2505  04FF  2CFA               	goto	u1845
  2506  0500  3001               	movlw	1
  2507  0501  00A0               	movwf	??___llmod
  2508  0502  0820               	movf	??___llmod,w
  2509  0503  07A1               	addwf	___llmod@counter,f
  2510  0504  2CF7               	goto	l1582
  2511  0505                     l1584:	
  2512  0505  0875               	movf	___llmod@divisor+3,w
  2513  0506  0279               	subwf	___llmod@dividend+3,w
  2514  0507  1D03               	skipz
  2515  0508  2D13               	goto	u1865
  2516  0509  0874               	movf	___llmod@divisor+2,w
  2517  050A  0278               	subwf	___llmod@dividend+2,w
  2518  050B  1D03               	skipz
  2519  050C  2D13               	goto	u1865
  2520  050D  0873               	movf	___llmod@divisor+1,w
  2521  050E  0277               	subwf	___llmod@dividend+1,w
  2522  050F  1D03               	skipz
  2523  0510  2D13               	goto	u1865
  2524  0511  0872               	movf	___llmod@divisor,w
  2525  0512  0276               	subwf	___llmod@dividend,w
  2526  0513                     u1865:	
  2527  0513  1C03               	skipc
  2528  0514  2D1D               	goto	l1588
  2529  0515  0872               	movf	___llmod@divisor,w
  2530  0516  02F6               	subwf	___llmod@dividend,f
  2531  0517  0873               	movf	___llmod@divisor+1,w
  2532  0518  3BF7               	subwfb	___llmod@dividend+1,f
  2533  0519  0874               	movf	___llmod@divisor+2,w
  2534  051A  3BF8               	subwfb	___llmod@dividend+2,f
  2535  051B  0875               	movf	___llmod@divisor+3,w
  2536  051C  3BF9               	subwfb	___llmod@dividend+3,f
  2537  051D                     l1588:	
  2538  051D  3001               	movlw	1
  2539  051E                     u1875:	
  2540  051E  36F5               	lsrf	___llmod@divisor+3,f
  2541  051F  0CF4               	rrf	___llmod@divisor+2,f
  2542  0520  0CF3               	rrf	___llmod@divisor+1,f
  2543  0521  0CF2               	rrf	___llmod@divisor,f
  2544  0522  0B89               	decfsz	9,f
  2545  0523  2D1E               	goto	u1875
  2546  0524  3001               	movlw	1
  2547  0525  02A1               	subwf	___llmod@counter,f
  2548  0526  1D03               	btfss	3,2
  2549  0527  2D05               	goto	l1584
  2550  0528                     l1592:	
  2551  0528  0879               	movf	___llmod@dividend+3,w
  2552  0529  00F5               	movwf	?___llmod+3
  2553  052A  0878               	movf	___llmod@dividend+2,w
  2554  052B  00F4               	movwf	?___llmod+2
  2555  052C  0877               	movf	___llmod@dividend+1,w
  2556  052D  00F3               	movwf	?___llmod+1
  2557  052E  0876               	movf	___llmod@dividend,w
  2558  052F  00F2               	movwf	?___llmod
  2559  0530  0008               	return
  2560  0531                     __end_of___llmod:	
  2561                           
  2562                           	psect	text6
  2563  049B                     __ptext6:	
  2564 ;; *************** function ___lldiv *****************
  2565 ;; Defined at:
  2566 ;;		line 6 in file "C:\Program Files\Microchip\xc8\v1.33\sources\common\lldiv.c"
  2567 ;; Parameters:    Size  Location     Type
  2568 ;;  divisor         4    2[COMMON] unsigned long 
  2569 ;;  dividend        4    6[COMMON] unsigned long 
  2570 ;; Auto vars:     Size  Location     Type
  2571 ;;  quotient        4    1[BANK0 ] unsigned long 
  2572 ;;  counter         1    5[BANK0 ] unsigned char 
  2573 ;; Return value:  Size  Location     Type
  2574 ;;                  4    2[COMMON] unsigned long 
  2575 ;; Registers used:
  2576 ;;		wreg, status,2, status,0
  2577 ;; Tracked objects:
  2578 ;;		On entry : 0/0
  2579 ;;		On exit  : 0/0
  2580 ;;		Unchanged: 0/0
  2581 ;; Data sizes:     COMMON   BANK0   BANK1   BANK2   BANK3   BANK4   BANK5   BANK6   BANK7   BANK8   BANK9  BANK10  BANK1
      +1  BANK12
  2582 ;;      Params:         8       0       0       0       0       0       0       0       0       0       0       0       
      +0       0
  2583 ;;      Locals:         0       5       0       0       0       0       0       0       0       0       0       0       
      +0       0
  2584 ;;      Temps:          0       1       0       0       0       0       0       0       0       0       0       0       
      +0       0
  2585 ;;      Totals:         8       6       0       0       0       0       0       0       0       0       0       0       
      +0       0
  2586 ;;Total ram usage:       14 bytes
  2587 ;; Hardware stack levels used:    1
  2588 ;; Hardware stack levels required when called:    1
  2589 ;; This function calls:
  2590 ;;		Nothing
  2591 ;; This function is called by:
  2592 ;;		_ultoa
  2593 ;; This function uses a non-reentrant model
  2594 ;;
  2595                           
  2596                           
  2597                           ;psect for function ___lldiv
  2598  049B                     ___lldiv:	
  2599                           
  2600                           ;incstack = 0
  2601                           ; Regs used in ___lldiv: [wreg+status,2+status,0]
  2602  049B  3000               	movlw	0
  2603  049C  0020               	movlb	0	; select bank0
  2604  049D  00A4               	movwf	___lldiv@quotient+3
  2605  049E  3000               	movlw	0
  2606  049F  00A3               	movwf	___lldiv@quotient+2
  2607  04A0  3000               	movlw	0
  2608  04A1  00A2               	movwf	___lldiv@quotient+1
  2609  04A2  3000               	movlw	0
  2610  04A3  00A1               	movwf	___lldiv@quotient
  2611  04A4  0875               	movf	___lldiv@divisor+3,w
  2612  04A5  0474               	iorwf	___lldiv@divisor+2,w
  2613  04A6  0473               	iorwf	___lldiv@divisor+1,w
  2614  04A7  0472               	iorwf	___lldiv@divisor,w
  2615  04A8  1903               	skipnz
  2616  04A9  2CE5               	goto	l1572
  2617  04AA  01A5               	clrf	___lldiv@counter
  2618  04AB  0AA5               	incf	___lldiv@counter,f
  2619  04AC                     l1558:	
  2620  04AC  1BF5               	btfsc	___lldiv@divisor+3,7
  2621  04AD  2CBA               	goto	l1560
  2622  04AE  3001               	movlw	1
  2623  04AF                     u1775:	
  2624  04AF  35F2               	lslf	___lldiv@divisor,f
  2625  04B0  0DF3               	rlf	___lldiv@divisor+1,f
  2626  04B1  0DF4               	rlf	___lldiv@divisor+2,f
  2627  04B2  0DF5               	rlf	___lldiv@divisor+3,f
  2628  04B3  0B89               	decfsz	9,f
  2629  04B4  2CAF               	goto	u1775
  2630  04B5  3001               	movlw	1
  2631  04B6  00A0               	movwf	??___lldiv
  2632  04B7  0820               	movf	??___lldiv,w
  2633  04B8  07A5               	addwf	___lldiv@counter,f
  2634  04B9  2CAC               	goto	l1558
  2635  04BA                     l1560:	
  2636  04BA  3001               	movlw	1
  2637  04BB                     u1795:	
  2638  04BB  35A1               	lslf	___lldiv@quotient,f
  2639  04BC  0DA2               	rlf	___lldiv@quotient+1,f
  2640  04BD  0DA3               	rlf	___lldiv@quotient+2,f
  2641  04BE  0DA4               	rlf	___lldiv@quotient+3,f
  2642  04BF  0B89               	decfsz	9,f
  2643  04C0  2CBB               	goto	u1795
  2644  04C1  0875               	movf	___lldiv@divisor+3,w
  2645  04C2  0279               	subwf	___lldiv@dividend+3,w
  2646  04C3  1D03               	skipz
  2647  04C4  2CCF               	goto	u1805
  2648  04C5  0874               	movf	___lldiv@divisor+2,w
  2649  04C6  0278               	subwf	___lldiv@dividend+2,w
  2650  04C7  1D03               	skipz
  2651  04C8  2CCF               	goto	u1805
  2652  04C9  0873               	movf	___lldiv@divisor+1,w
  2653  04CA  0277               	subwf	___lldiv@dividend+1,w
  2654  04CB  1D03               	skipz
  2655  04CC  2CCF               	goto	u1805
  2656  04CD  0872               	movf	___lldiv@divisor,w
  2657  04CE  0276               	subwf	___lldiv@dividend,w
  2658  04CF                     u1805:	
  2659  04CF  1C03               	skipc
  2660  04D0  2CDA               	goto	l1568
  2661  04D1  0872               	movf	___lldiv@divisor,w
  2662  04D2  02F6               	subwf	___lldiv@dividend,f
  2663  04D3  0873               	movf	___lldiv@divisor+1,w
  2664  04D4  3BF7               	subwfb	___lldiv@dividend+1,f
  2665  04D5  0874               	movf	___lldiv@divisor+2,w
  2666  04D6  3BF8               	subwfb	___lldiv@dividend+2,f
  2667  04D7  0875               	movf	___lldiv@divisor+3,w
  2668  04D8  3BF9               	subwfb	___lldiv@dividend+3,f
  2669  04D9  1421               	bsf	___lldiv@quotient,0
  2670  04DA                     l1568:	
  2671  04DA  3001               	movlw	1
  2672  04DB                     u1815:	
  2673  04DB  36F5               	lsrf	___lldiv@divisor+3,f
  2674  04DC  0CF4               	rrf	___lldiv@divisor+2,f
  2675  04DD  0CF3               	rrf	___lldiv@divisor+1,f
  2676  04DE  0CF2               	rrf	___lldiv@divisor,f
  2677  04DF  0B89               	decfsz	9,f
  2678  04E0  2CDB               	goto	u1815
  2679  04E1  3001               	movlw	1
  2680  04E2  02A5               	subwf	___lldiv@counter,f
  2681  04E3  1D03               	btfss	3,2
  2682  04E4  2CBA               	goto	l1560
  2683  04E5                     l1572:	
  2684  04E5  0824               	movf	___lldiv@quotient+3,w
  2685  04E6  00F5               	movwf	?___lldiv+3
  2686  04E7  0823               	movf	___lldiv@quotient+2,w
  2687  04E8  00F4               	movwf	?___lldiv+2
  2688  04E9  0822               	movf	___lldiv@quotient+1,w
  2689  04EA  00F3               	movwf	?___lldiv+1
  2690  04EB  0821               	movf	___lldiv@quotient,w
  2691  04EC  00F2               	movwf	?___lldiv
  2692  04ED  0008               	return
  2693  04EE                     __end_of___lldiv:	
  2694                           
  2695                           	psect	text7
  2696  061D                     __ptext7:	
  2697 ;; *************** function _initPD3535 *****************
  2698 ;; Defined at:
  2699 ;;		line 52 in file "PD3535.c"
  2700 ;; Parameters:    Size  Location     Type
  2701 ;;  modo            1    wreg     unsigned char 
  2702 ;; Auto vars:     Size  Location     Type
  2703 ;;  modo            1    7[COMMON] unsigned char 
  2704 ;;  dato            2    8[COMMON] struct .
  2705 ;; Return value:  Size  Location     Type
  2706 ;;		None               void
  2707 ;; Registers used:
  2708 ;;		wreg, status,2, status,0, pclath, cstack
  2709 ;; Tracked objects:
  2710 ;;		On entry : 0/0
  2711 ;;		On exit  : 0/0
  2712 ;;		Unchanged: 0/0
  2713 ;; Data sizes:     COMMON   BANK0   BANK1   BANK2   BANK3   BANK4   BANK5   BANK6   BANK7   BANK8   BANK9  BANK10  BANK1
      +1  BANK12
  2714 ;;      Params:         0       0       0       0       0       0       0       0       0       0       0       0       
      +0       0
  2715 ;;      Locals:         3       0       0       0       0       0       0       0       0       0       0       0       
      +0       0
  2716 ;;      Temps:          1       0       0       0       0       0       0       0       0       0       0       0       
      +0       0
  2717 ;;      Totals:         4       0       0       0       0       0       0       0       0       0       0       0       
      +0       0
  2718 ;;Total ram usage:        4 bytes
  2719 ;; Hardware stack levels used:    1
  2720 ;; Hardware stack levels required when called:    2
  2721 ;; This function calls:
  2722 ;;		_snd4094
  2723 ;; This function is called by:
  2724 ;;		_main
  2725 ;; This function uses a non-reentrant model
  2726 ;;
  2727                           
  2728                           
  2729                           ;psect for function _initPD3535
  2730  061D                     _initPD3535:	
  2731                           
  2732                           ;incstack = 0
  2733                           ; Regs used in _initPD3535: [wreg+status,2+status,0+pclath+cstack]
  2734                           ;initPD3535@modo stored from wreg
  2735  061D  00F7               	movwf	initPD3535@modo
  2736                           
  2737                           ;PD3535.c: 53: WORD_VAL dato;
  2738                           ;PD3535.c: 55: TRISBbits.TRISB4 = TRISBbits.TRISB5 = TRISBbits.TRISB6 = 0;
  2739  061E  0021               	movlb	1	; select bank1
  2740  061F  130D               	bcf	13,6	;volatile
  2741  0620  128D               	bcf	13,5	;volatile
  2742  0621  120D               	bcf	13,4	;volatile
  2743                           
  2744                           ;PD3535.c: 57: dato.v[0] = modo;
  2745  0622  0877               	movf	initPD3535@modo,w
  2746  0623  00F6               	movwf	??_initPD3535
  2747  0624  0876               	movf	??_initPD3535,w
  2748  0625  00F8               	movwf	initPD3535@dato
  2749                           
  2750                           ;PD3535.c: 58: dato.v[1] = 0;
  2751  0626  01F9               	clrf	initPD3535@dato+1
  2752                           
  2753                           ;PD3535.c: 59: snd4094(dato);
  2754  0627  0879               	movf	initPD3535@dato+1,w
  2755  0628  01F3               	clrf	snd4094@dato+1
  2756  0629  07F3               	addwf	snd4094@dato+1,f
  2757  062A  0878               	movf	initPD3535@dato,w
  2758  062B  01F2               	clrf	snd4094@dato
  2759  062C  07F2               	addwf	snd4094@dato,f
  2760  062D  3185  25A1         	fcall	_snd4094
  2761  062F  0008               	return
  2762  0630                     __end_of_initPD3535:	
  2763                           
  2764                           	psect	text8
  2765  05A1                     __ptext8:	
  2766 ;; *************** function _snd4094 *****************
  2767 ;; Defined at:
  2768 ;;		line 16 in file "PD3535.c"
  2769 ;; Parameters:    Size  Location     Type
  2770 ;;  dato            2    2[COMMON] struct .
  2771 ;; Auto vars:     Size  Location     Type
  2772 ;;  i               1    5[COMMON] unsigned char 
  2773 ;; Return value:  Size  Location     Type
  2774 ;;		None               void
  2775 ;; Registers used:
  2776 ;;		wreg, status,2, status,0
  2777 ;; Tracked objects:
  2778 ;;		On entry : 0/0
  2779 ;;		On exit  : 0/0
  2780 ;;		Unchanged: 0/0
  2781 ;; Data sizes:     COMMON   BANK0   BANK1   BANK2   BANK3   BANK4   BANK5   BANK6   BANK7   BANK8   BANK9  BANK10  BANK1
      +1  BANK12
  2782 ;;      Params:         2       0       0       0       0       0       0       0       0       0       0       0       
      +0       0
  2783 ;;      Locals:         1       0       0       0       0       0       0       0       0       0       0       0       
      +0       0
  2784 ;;      Temps:          1       0       0       0       0       0       0       0       0       0       0       0       
      +0       0
  2785 ;;      Totals:         4       0       0       0       0       0       0       0       0       0       0       0       
      +0       0
  2786 ;;Total ram usage:        4 bytes
  2787 ;; Hardware stack levels used:    1
  2788 ;; Hardware stack levels required when called:    1
  2789 ;; This function calls:
  2790 ;;		Nothing
  2791 ;; This function is called by:
  2792 ;;		_initPD3535
  2793 ;;		_disChar
  2794 ;;		_disCharPos
  2795 ;; This function uses a non-reentrant model
  2796 ;;
  2797                           
  2798                           
  2799                           ;psect for function _snd4094
  2800  05A1                     _snd4094:	
  2801                           
  2802                           ;PD3535.c: 17: BYTE i = 16;
  2803                           
  2804                           ;incstack = 0
  2805                           ; Regs used in _snd4094: [wreg+status,2+status,0]
  2806  05A1  3010               	movlw	16
  2807  05A2  00F4               	movwf	??_snd4094
  2808  05A3  0874               	movf	??_snd4094,w
  2809  05A4  00F5               	movwf	snd4094@i
  2810                           
  2811                           ;PD3535.c: 21: LATBbits.LATB5 = 0;
  2812  05A5  0022               	movlb	2	; select bank2
  2813  05A6  128D               	bcf	13,5	;volatile
  2814                           
  2815                           ;PD3535.c: 23: for (i = 16; i > 0; i--) {
  2816  05A7  3010               	movlw	16
  2817  05A8  00F4               	movwf	??_snd4094
  2818  05A9  0874               	movf	??_snd4094,w
  2819  05AA  00F5               	movwf	snd4094@i
  2820  05AB  08F5               	movf	snd4094@i,f
  2821  05AC  1903               	btfsc	3,2
  2822  05AD  2DC4               	goto	l196
  2823  05AE                     l195:	
  2824                           
  2825                           ;PD3535.c: 24: if ((dato.Val & 0x8000) == 0)
  2826  05AE  1BF3               	btfsc	snd4094@dato+1,7
  2827  05AF  2DB2               	goto	l197
  2828                           
  2829                           ;PD3535.c: 27: LATBbits.LATB4 = 0;
  2830  05B0  120D               	bcf	13,4	;volatile
  2831  05B1  2DB3               	goto	l1540
  2832  05B2                     l197:	
  2833                           
  2834                           ;PD3535.c: 28: else
  2835                           ;PD3535.c: 30: LATBbits.LATB4 = 1;
  2836  05B2  160D               	bsf	13,4	;volatile
  2837  05B3                     l1540:	
  2838                           
  2839                           ;PD3535.c: 33: dato.Val <<= 1;
  2840  05B3  3001               	movlw	1
  2841  05B4                     u1745:	
  2842  05B4  35F2               	lslf	snd4094@dato,f
  2843  05B5  0DF3               	rlf	snd4094@dato+1,f
  2844  05B6  0B89               	decfsz	9,f
  2845  05B7  2DB4               	goto	u1745
  2846                           
  2847                           ;PD3535.c: 35: LATBbits.LATB5 = 1;
  2848  05B8  168D               	bsf	13,5	;volatile
  2849                           
  2850                           ;PD3535.c: 36: _delay((unsigned long)((4)*(16000000/4000000.0)));
  2851  05B9  3005               	movlw	5
  2852  05BA  00F4               	movwf	??_snd4094
  2853  05BB                     u2527:	
  2854  05BB  0BF4               	decfsz	??_snd4094,f
  2855  05BC  2DBB               	goto	u2527
  2856                           
  2857                           ;PD3535.c: 38: LATBbits.LATB5 = 0;
  2858  05BD  0022               	movlb	2	; select bank2
  2859  05BE  128D               	bcf	13,5	;volatile
  2860  05BF  3001               	movlw	1
  2861  05C0  02F5               	subwf	snd4094@i,f
  2862  05C1  08F5               	movf	snd4094@i,f
  2863  05C2  1D03               	skipz
  2864  05C3  2DAE               	goto	l195
  2865  05C4                     l196:	
  2866                           
  2867                           ;PD3535.c: 40: }
  2868                           ;PD3535.c: 44: LATBbits.LATB6 = 0;
  2869  05C4  130D               	bcf	13,6	;volatile
  2870                           
  2871                           ;PD3535.c: 45: _delay((unsigned long)((8)*(16000000/4000000.0)));
  2872  05C5  300A               	movlw	10
  2873  05C6  00F4               	movwf	??_snd4094
  2874  05C7                     u2537:	
  2875  05C7  0BF4               	decfsz	??_snd4094,f
  2876  05C8  2DC7               	goto	u2537
  2877  05C9  0000               	nop
  2878                           
  2879                           ;PD3535.c: 47: LATBbits.LATB6 = 1;
  2880  05CA  0022               	movlb	2	; select bank2
  2881  05CB  170D               	bsf	13,6	;volatile
  2882  05CC  0008               	return
  2883  05CD                     __end_of_snd4094:	
  2884                           
  2885                           	psect	text9
  2886  05CD                     __ptext9:	
  2887 ;; *************** function ___lltoft *****************
  2888 ;; Defined at:
  2889 ;;		line 35 in file "C:\Program Files\Microchip\xc8\v1.33\sources\common\lltoft.c"
  2890 ;; Parameters:    Size  Location     Type
  2891 ;;  c               4    0[BANK0 ] unsigned long 
  2892 ;; Auto vars:     Size  Location     Type
  2893 ;;  exp             1    5[BANK0 ] unsigned char 
  2894 ;; Return value:  Size  Location     Type
  2895 ;;                  3    0[BANK0 ] float 
  2896 ;; Registers used:
  2897 ;;		wreg, status,2, status,0, pclath, cstack
  2898 ;; Tracked objects:
  2899 ;;		On entry : 0/0
  2900 ;;		On exit  : 0/0
  2901 ;;		Unchanged: 0/0
  2902 ;; Data sizes:     COMMON   BANK0   BANK1   BANK2   BANK3   BANK4   BANK5   BANK6   BANK7   BANK8   BANK9  BANK10  BANK1
      +1  BANK12
  2903 ;;      Params:         0       4       0       0       0       0       0       0       0       0       0       0       
      +0       0
  2904 ;;      Locals:         0       1       0       0       0       0       0       0       0       0       0       0       
      +0       0
  2905 ;;      Temps:          0       1       0       0       0       0       0       0       0       0       0       0       
      +0       0
  2906 ;;      Totals:         0       6       0       0       0       0       0       0       0       0       0       0       
      +0       0
  2907 ;;Total ram usage:        6 bytes
  2908 ;; Hardware stack levels used:    1
  2909 ;; Hardware stack levels required when called:    2
  2910 ;; This function calls:
  2911 ;;		___ftpack
  2912 ;; This function is called by:
  2913 ;;		_main
  2914 ;; This function uses a non-reentrant model
  2915 ;;
  2916                           
  2917                           
  2918                           ;psect for function ___lltoft
  2919  05CD                     ___lltoft:	
  2920                           
  2921                           ;incstack = 0
  2922                           ; Regs used in ___lltoft: [wreg+status,2+status,0+pclath+cstack]
  2923  05CD  308E               	movlw	142
  2924  05CE  0020               	movlb	0	; select bank0
  2925  05CF  00A4               	movwf	??___lltoft
  2926  05D0  0824               	movf	??___lltoft,w
  2927  05D1  00A5               	movwf	___lltoft@exp
  2928  05D2                     l1842:	
  2929  05D2  30FF               	movlw	255
  2930  05D3  0523               	andwf	___lltoft@c+3,w
  2931  05D4  1903               	btfsc	3,2
  2932  05D5  2DE2               	goto	l1844
  2933  05D6  3001               	movlw	1
  2934  05D7                     u2395:	
  2935  05D7  36A3               	lsrf	___lltoft@c+3,f
  2936  05D8  0CA2               	rrf	___lltoft@c+2,f
  2937  05D9  0CA1               	rrf	___lltoft@c+1,f
  2938  05DA  0CA0               	rrf	___lltoft@c,f
  2939  05DB  0B89               	decfsz	9,f
  2940  05DC  2DD7               	goto	u2395
  2941  05DD  3001               	movlw	1
  2942  05DE  00A4               	movwf	??___lltoft
  2943  05DF  0824               	movf	??___lltoft,w
  2944  05E0  07A5               	addwf	___lltoft@exp,f
  2945  05E1  2DD2               	goto	l1842
  2946  05E2                     l1844:	
  2947  05E2  0820               	movf	___lltoft@c,w
  2948  05E3  00F2               	movwf	___ftpack@arg
  2949  05E4  0821               	movf	___lltoft@c+1,w
  2950  05E5  00F3               	movwf	___ftpack@arg+1
  2951  05E6  0822               	movf	___lltoft@c+2,w
  2952  05E7  00F4               	movwf	___ftpack@arg+2
  2953  05E8  0825               	movf	___lltoft@exp,w
  2954  05E9  00A4               	movwf	??___lltoft
  2955  05EA  0824               	movf	??___lltoft,w
  2956  05EB  00F5               	movwf	___ftpack@exp
  2957  05EC  01F6               	clrf	___ftpack@sign
  2958  05ED  3184  243B         	fcall	___ftpack
  2959  05EF  0872               	movf	?___ftpack,w
  2960  05F0  0020               	movlb	0	; select bank0
  2961  05F1  00A0               	movwf	?___lltoft
  2962  05F2  0873               	movf	?___ftpack+1,w
  2963  05F3  00A1               	movwf	?___lltoft+1
  2964  05F4  0874               	movf	?___ftpack+2,w
  2965  05F5  00A2               	movwf	?___lltoft+2
  2966  05F6  0008               	return
  2967  05F7                     __end_of___lltoft:	
  2968                           
  2969                           	psect	text10
  2970  03B4                     __ptext10:	
  2971 ;; *************** function ___fttol *****************
  2972 ;; Defined at:
  2973 ;;		line 44 in file "C:\Program Files\Microchip\xc8\v1.33\sources\common\fttol.c"
  2974 ;; Parameters:    Size  Location     Type
  2975 ;;  f1              3   38[BANK0 ] float 
  2976 ;; Auto vars:     Size  Location     Type
  2977 ;;  lval            4   47[BANK0 ] unsigned long 
  2978 ;;  exp1            1   51[BANK0 ] unsigned char 
  2979 ;;  sign1           1   46[BANK0 ] unsigned char 
  2980 ;; Return value:  Size  Location     Type
  2981 ;;                  4   38[BANK0 ] long 
  2982 ;; Registers used:
  2983 ;;		wreg, status,2, status,0
  2984 ;; Tracked objects:
  2985 ;;		On entry : 0/0
  2986 ;;		On exit  : 0/0
  2987 ;;		Unchanged: 0/0
  2988 ;; Data sizes:     COMMON   BANK0   BANK1   BANK2   BANK3   BANK4   BANK5   BANK6   BANK7   BANK8   BANK9  BANK10  BANK1
      +1  BANK12
  2989 ;;      Params:         0       4       0       0       0       0       0       0       0       0       0       0       
      +0       0
  2990 ;;      Locals:         0       6       0       0       0       0       0       0       0       0       0       0       
      +0       0
  2991 ;;      Temps:          0       4       0       0       0       0       0       0       0       0       0       0       
      +0       0
  2992 ;;      Totals:         0      14       0       0       0       0       0       0       0       0       0       0       
      +0       0
  2993 ;;Total ram usage:       14 bytes
  2994 ;; Hardware stack levels used:    1
  2995 ;; Hardware stack levels required when called:    1
  2996 ;; This function calls:
  2997 ;;		Nothing
  2998 ;; This function is called by:
  2999 ;;		_main
  3000 ;; This function uses a non-reentrant model
  3001 ;;
  3002                           
  3003                           
  3004                           ;psect for function ___fttol
  3005  03B4                     ___fttol:	
  3006                           
  3007                           ;incstack = 0
  3008                           ; Regs used in ___fttol: [wreg+status,2+status,0]
  3009  03B4  0020               	movlb	0	; select bank0
  3010  03B5  0846               	movf	___fttol@f1,w
  3011  03B6  00CA               	movwf	??___fttol
  3012  03B7  0847               	movf	___fttol@f1+1,w
  3013  03B8  00CB               	movwf	??___fttol+1
  3014  03B9  0848               	movf	___fttol@f1+2,w
  3015  03BA  00CC               	movwf	??___fttol+2
  3016  03BB  1003               	clrc
  3017  03BC  0D4B               	rlf	??___fttol+1,w
  3018  03BD  0D4C               	rlf	??___fttol+2,w
  3019  03BE  00CD               	movwf	??___fttol+3
  3020  03BF  084D               	movf	??___fttol+3,w
  3021  03C0  00D3               	movwf	___fttol@exp1
  3022  03C1  08D3               	movf	___fttol@exp1,f
  3023  03C2  1D03               	skipz
  3024  03C3  2BCD               	goto	l1800
  3025  03C4  3000               	movlw	0
  3026  03C5  00C9               	movwf	?___fttol+3
  3027  03C6  3000               	movlw	0
  3028  03C7  00C8               	movwf	?___fttol+2
  3029  03C8  3000               	movlw	0
  3030  03C9  00C7               	movwf	?___fttol+1
  3031  03CA  3000               	movlw	0
  3032  03CB  00C6               	movwf	?___fttol
  3033  03CC  0008               	return
  3034  03CD                     l1800:	
  3035  03CD  0846               	movf	___fttol@f1,w
  3036  03CE  00CA               	movwf	??___fttol
  3037  03CF  0847               	movf	___fttol@f1+1,w
  3038  03D0  00CB               	movwf	??___fttol+1
  3039  03D1  0848               	movf	___fttol@f1+2,w
  3040  03D2  00CC               	movwf	??___fttol+2
  3041  03D3  3017               	movlw	23
  3042  03D4                     u2305:	
  3043  03D4  36CC               	lsrf	??___fttol+2,f
  3044  03D5  0CCB               	rrf	??___fttol+1,f
  3045  03D6  0CCA               	rrf	??___fttol,f
  3046  03D7  0B89               	decfsz	9,f
  3047  03D8  2BD4               	goto	u2305
  3048  03D9  084A               	movf	??___fttol,w
  3049  03DA  00CD               	movwf	??___fttol+3
  3050  03DB  084D               	movf	??___fttol+3,w
  3051  03DC  00CE               	movwf	___fttol@sign1
  3052  03DD  17C7               	bsf	___fttol@f1+1,7
  3053  03DE  30FF               	movlw	255
  3054  03DF  05C6               	andwf	___fttol@f1,f
  3055  03E0  30FF               	movlw	255
  3056  03E1  05C7               	andwf	___fttol@f1+1,f
  3057  03E2  3000               	movlw	0
  3058  03E3  05C8               	andwf	___fttol@f1+2,f
  3059  03E4  0846               	movf	___fttol@f1,w
  3060  03E5  00CF               	movwf	___fttol@lval
  3061  03E6  0847               	movf	___fttol@f1+1,w
  3062  03E7  00D0               	movwf	___fttol@lval+1
  3063  03E8  0848               	movf	___fttol@f1+2,w
  3064  03E9  00D1               	movwf	___fttol@lval+2
  3065  03EA  01D2               	clrf	___fttol@lval+3
  3066  03EB  308E               	movlw	142
  3067  03EC  02D3               	subwf	___fttol@exp1,f
  3068  03ED  1FD3               	btfss	___fttol@exp1,7
  3069  03EE  2C0B               	goto	l1820
  3070  03EF  0853               	movf	___fttol@exp1,w
  3071  03F0  3A80               	xorlw	128
  3072  03F1  3E8F               	addlw	143
  3073  03F2  1803               	skipnc
  3074  03F3  2BFD               	goto	l1818
  3075  03F4  3000               	movlw	0
  3076  03F5  00C9               	movwf	?___fttol+3
  3077  03F6  3000               	movlw	0
  3078  03F7  00C8               	movwf	?___fttol+2
  3079  03F8  3000               	movlw	0
  3080  03F9  00C7               	movwf	?___fttol+1
  3081  03FA  3000               	movlw	0
  3082  03FB  00C6               	movwf	?___fttol
  3083  03FC  0008               	return
  3084  03FD                     l1818:	
  3085  03FD  3001               	movlw	1
  3086  03FE                     u2335:	
  3087  03FE  36D2               	lsrf	___fttol@lval+3,f
  3088  03FF  0CD1               	rrf	___fttol@lval+2,f
  3089  0400  0CD0               	rrf	___fttol@lval+1,f
  3090  0401  0CCF               	rrf	___fttol@lval,f
  3091  0402  0B89               	decfsz	9,f
  3092  0403  2BFE               	goto	u2335
  3093  0404  3001               	movlw	1
  3094  0405  00CA               	movwf	??___fttol
  3095  0406  084A               	movf	??___fttol,w
  3096  0407  07D3               	addwf	___fttol@exp1,f
  3097  0408  1903               	btfsc	3,2
  3098  0409  2C24               	goto	l1830
  3099  040A  2BFD               	goto	l1818
  3100  040B                     l1820:	
  3101  040B  3018               	movlw	24
  3102  040C  0253               	subwf	___fttol@exp1,w
  3103  040D  1C03               	skipc
  3104  040E  2C21               	goto	l1828
  3105  040F  3000               	movlw	0
  3106  0410  00C9               	movwf	?___fttol+3
  3107  0411  3000               	movlw	0
  3108  0412  00C8               	movwf	?___fttol+2
  3109  0413  3000               	movlw	0
  3110  0414  00C7               	movwf	?___fttol+1
  3111  0415  3000               	movlw	0
  3112  0416  00C6               	movwf	?___fttol
  3113  0417  0008               	return
  3114  0418                     l1826:	
  3115  0418  3001               	movlw	1
  3116  0419                     u2365:	
  3117  0419  35CF               	lslf	___fttol@lval,f
  3118  041A  0DD0               	rlf	___fttol@lval+1,f
  3119  041B  0DD1               	rlf	___fttol@lval+2,f
  3120  041C  0DD2               	rlf	___fttol@lval+3,f
  3121  041D  0B89               	decfsz	9,f
  3122  041E  2C19               	goto	u2365
  3123  041F  3001               	movlw	1
  3124  0420  02D3               	subwf	___fttol@exp1,f
  3125  0421                     l1828:	
  3126  0421  08D3               	movf	___fttol@exp1,f
  3127  0422  1D03               	skipz
  3128  0423  2C18               	goto	l1826
  3129  0424                     l1830:	
  3130  0424  084E               	movf	___fttol@sign1,w
  3131  0425  1903               	btfsc	3,2
  3132  0426  2C32               	goto	l1834
  3133  0427  09CF               	comf	___fttol@lval,f
  3134  0428  09D0               	comf	___fttol@lval+1,f
  3135  0429  09D1               	comf	___fttol@lval+2,f
  3136  042A  09D2               	comf	___fttol@lval+3,f
  3137  042B  0ACF               	incf	___fttol@lval,f
  3138  042C  1903               	skipnz
  3139  042D  0AD0               	incf	___fttol@lval+1,f
  3140  042E  1903               	skipnz
  3141  042F  0AD1               	incf	___fttol@lval+2,f
  3142  0430  1903               	skipnz
  3143  0431  0AD2               	incf	___fttol@lval+3,f
  3144  0432                     l1834:	
  3145  0432  0852               	movf	___fttol@lval+3,w
  3146  0433  00C9               	movwf	?___fttol+3
  3147  0434  0851               	movf	___fttol@lval+2,w
  3148  0435  00C8               	movwf	?___fttol+2
  3149  0436  0850               	movf	___fttol@lval+1,w
  3150  0437  00C7               	movwf	?___fttol+1
  3151  0438  084F               	movf	___fttol@lval,w
  3152  0439  00C6               	movwf	?___fttol
  3153  043A  0008               	return
  3154  043B                     __end_of___fttol:	
  3155                           
  3156                           	psect	text11
  3157  01CE                     __ptext11:	
  3158 ;; *************** function ___ftmul *****************
  3159 ;; Defined at:
  3160 ;;		line 62 in file "C:\Program Files\Microchip\xc8\v1.33\sources\common\ftmul.c"
  3161 ;; Parameters:    Size  Location     Type
  3162 ;;  f1              3   22[BANK0 ] float 
  3163 ;;  f2              3   25[BANK0 ] float 
  3164 ;; Auto vars:     Size  Location     Type
  3165 ;;  f3_as_produc    3   33[BANK0 ] unsigned um
  3166 ;;  sign            1   37[BANK0 ] unsigned char 
  3167 ;;  cntr            1   36[BANK0 ] unsigned char 
  3168 ;;  exp             1   32[BANK0 ] unsigned char 
  3169 ;; Return value:  Size  Location     Type
  3170 ;;                  3   22[BANK0 ] float 
  3171 ;; Registers used:
  3172 ;;		wreg, status,2, status,0, pclath, cstack
  3173 ;; Tracked objects:
  3174 ;;		On entry : 0/0
  3175 ;;		On exit  : 0/0
  3176 ;;		Unchanged: 0/0
  3177 ;; Data sizes:     COMMON   BANK0   BANK1   BANK2   BANK3   BANK4   BANK5   BANK6   BANK7   BANK8   BANK9  BANK10  BANK1
      +1  BANK12
  3178 ;;      Params:         0       6       0       0       0       0       0       0       0       0       0       0       
      +0       0
  3179 ;;      Locals:         0       6       0       0       0       0       0       0       0       0       0       0       
      +0       0
  3180 ;;      Temps:          0       4       0       0       0       0       0       0       0       0       0       0       
      +0       0
  3181 ;;      Totals:         0      16       0       0       0       0       0       0       0       0       0       0       
      +0       0
  3182 ;;Total ram usage:       16 bytes
  3183 ;; Hardware stack levels used:    1
  3184 ;; Hardware stack levels required when called:    2
  3185 ;; This function calls:
  3186 ;;		___ftpack
  3187 ;; This function is called by:
  3188 ;;		_main
  3189 ;; This function uses a non-reentrant model
  3190 ;;
  3191                           
  3192                           
  3193                           ;psect for function ___ftmul
  3194  01CE                     ___ftmul:	
  3195                           
  3196                           ;incstack = 0
  3197                           ; Regs used in ___ftmul: [wreg+status,2+status,0+pclath+cstack]
  3198  01CE  0020               	movlb	0	; select bank0
  3199  01CF  0836               	movf	___ftmul@f1,w
  3200  01D0  00BC               	movwf	??___ftmul
  3201  01D1  0837               	movf	___ftmul@f1+1,w
  3202  01D2  00BD               	movwf	??___ftmul+1
  3203  01D3  0838               	movf	___ftmul@f1+2,w
  3204  01D4  00BE               	movwf	??___ftmul+2
  3205  01D5  1003               	clrc
  3206  01D6  0D3D               	rlf	??___ftmul+1,w
  3207  01D7  0D3E               	rlf	??___ftmul+2,w
  3208  01D8  00BF               	movwf	??___ftmul+3
  3209  01D9  083F               	movf	??___ftmul+3,w
  3210  01DA  00C0               	movwf	___ftmul@exp
  3211  01DB  08C0               	movf	___ftmul@exp,f
  3212  01DC  1D03               	skipz
  3213  01DD  29E5               	goto	l1750
  3214  01DE  3000               	movlw	0
  3215  01DF  00B6               	movwf	?___ftmul
  3216  01E0  3000               	movlw	0
  3217  01E1  00B7               	movwf	?___ftmul+1
  3218  01E2  3000               	movlw	0
  3219  01E3  00B8               	movwf	?___ftmul+2
  3220  01E4  0008               	return
  3221  01E5                     l1750:	
  3222  01E5  0839               	movf	___ftmul@f2,w
  3223  01E6  00BC               	movwf	??___ftmul
  3224  01E7  083A               	movf	___ftmul@f2+1,w
  3225  01E8  00BD               	movwf	??___ftmul+1
  3226  01E9  083B               	movf	___ftmul@f2+2,w
  3227  01EA  00BE               	movwf	??___ftmul+2
  3228  01EB  1003               	clrc
  3229  01EC  0D3D               	rlf	??___ftmul+1,w
  3230  01ED  0D3E               	rlf	??___ftmul+2,w
  3231  01EE  00BF               	movwf	??___ftmul+3
  3232  01EF  083F               	movf	??___ftmul+3,w
  3233  01F0  00C5               	movwf	___ftmul@sign
  3234  01F1  08C5               	movf	___ftmul@sign,f
  3235  01F2  1D03               	skipz
  3236  01F3  29FB               	goto	l1756
  3237  01F4  3000               	movlw	0
  3238  01F5  00B6               	movwf	?___ftmul
  3239  01F6  3000               	movlw	0
  3240  01F7  00B7               	movwf	?___ftmul+1
  3241  01F8  3000               	movlw	0
  3242  01F9  00B8               	movwf	?___ftmul+2
  3243  01FA  0008               	return
  3244  01FB                     l1756:	
  3245  01FB  0845               	movf	___ftmul@sign,w
  3246  01FC  3E7B               	addlw	123
  3247  01FD  00BC               	movwf	??___ftmul
  3248  01FE  083C               	movf	??___ftmul,w
  3249  01FF  07C0               	addwf	___ftmul@exp,f
  3250  0200  0836               	movf	___ftmul@f1,w
  3251  0201  00BC               	movwf	??___ftmul
  3252  0202  0837               	movf	___ftmul@f1+1,w
  3253  0203  00BD               	movwf	??___ftmul+1
  3254  0204  0838               	movf	___ftmul@f1+2,w
  3255  0205  00BE               	movwf	??___ftmul+2
  3256  0206  3010               	movlw	16
  3257  0207                     u2195:	
  3258  0207  36BE               	lsrf	??___ftmul+2,f
  3259  0208  0CBD               	rrf	??___ftmul+1,f
  3260  0209  0CBC               	rrf	??___ftmul,f
  3261  020A  0B89               	decfsz	9,f
  3262  020B  2A07               	goto	u2195
  3263  020C  083C               	movf	??___ftmul,w
  3264  020D  00BF               	movwf	??___ftmul+3
  3265  020E  083F               	movf	??___ftmul+3,w
  3266  020F  00C5               	movwf	___ftmul@sign
  3267  0210  0839               	movf	___ftmul@f2,w
  3268  0211  00BC               	movwf	??___ftmul
  3269  0212  083A               	movf	___ftmul@f2+1,w
  3270  0213  00BD               	movwf	??___ftmul+1
  3271  0214  083B               	movf	___ftmul@f2+2,w
  3272  0215  00BE               	movwf	??___ftmul+2
  3273  0216  3010               	movlw	16
  3274  0217                     u2205:	
  3275  0217  36BE               	lsrf	??___ftmul+2,f
  3276  0218  0CBD               	rrf	??___ftmul+1,f
  3277  0219  0CBC               	rrf	??___ftmul,f
  3278  021A  0B89               	decfsz	9,f
  3279  021B  2A17               	goto	u2205
  3280  021C  083C               	movf	??___ftmul,w
  3281  021D  00BF               	movwf	??___ftmul+3
  3282  021E  083F               	movf	??___ftmul+3,w
  3283  021F  06C5               	xorwf	___ftmul@sign,f
  3284  0220  3080               	movlw	128
  3285  0221  00BC               	movwf	??___ftmul
  3286  0222  083C               	movf	??___ftmul,w
  3287  0223  05C5               	andwf	___ftmul@sign,f
  3288  0224  17B7               	bsf	___ftmul@f1+1,7
  3289  0225  17BA               	bsf	___ftmul@f2+1,7
  3290  0226  30FF               	movlw	255
  3291  0227  05B9               	andwf	___ftmul@f2,f
  3292  0228  30FF               	movlw	255
  3293  0229  05BA               	andwf	___ftmul@f2+1,f
  3294  022A  3000               	movlw	0
  3295  022B  05BB               	andwf	___ftmul@f2+2,f
  3296  022C  3000               	movlw	0
  3297  022D  00C1               	movwf	___ftmul@f3_as_product
  3298  022E  3000               	movlw	0
  3299  022F  00C2               	movwf	___ftmul@f3_as_product+1
  3300  0230  3000               	movlw	0
  3301  0231  00C3               	movwf	___ftmul@f3_as_product+2
  3302  0232  3007               	movlw	7
  3303  0233  00BC               	movwf	??___ftmul
  3304  0234  083C               	movf	??___ftmul,w
  3305  0235  00C4               	movwf	___ftmul@cntr
  3306  0236                     l1768:	
  3307  0236  1C36               	btfss	___ftmul@f1,0
  3308  0237  2A3E               	goto	l1772
  3309  0238  0839               	movf	___ftmul@f2,w
  3310  0239  07C1               	addwf	___ftmul@f3_as_product,f
  3311  023A  083A               	movf	___ftmul@f2+1,w
  3312  023B  3DC2               	addwfc	___ftmul@f3_as_product+1,f
  3313  023C  083B               	movf	___ftmul@f2+2,w
  3314  023D  3DC3               	addwfc	___ftmul@f3_as_product+2,f
  3315  023E                     l1772:	
  3316  023E  3001               	movlw	1
  3317  023F                     u2225:	
  3318  023F  36B8               	lsrf	___ftmul@f1+2,f
  3319  0240  0CB7               	rrf	___ftmul@f1+1,f
  3320  0241  0CB6               	rrf	___ftmul@f1,f
  3321  0242  0B89               	decfsz	9,f
  3322  0243  2A3F               	goto	u2225
  3323  0244  3001               	movlw	1
  3324  0245                     u2235:	
  3325  0245  35B9               	lslf	___ftmul@f2,f
  3326  0246  0DBA               	rlf	___ftmul@f2+1,f
  3327  0247  0DBB               	rlf	___ftmul@f2+2,f
  3328  0248  0B89               	decfsz	9,f
  3329  0249  2A45               	goto	u2235
  3330  024A  3001               	movlw	1
  3331  024B  02C4               	subwf	___ftmul@cntr,f
  3332  024C  1D03               	btfss	3,2
  3333  024D  2A36               	goto	l1768
  3334  024E  3009               	movlw	9
  3335  024F  00BC               	movwf	??___ftmul
  3336  0250  083C               	movf	??___ftmul,w
  3337  0251  00C4               	movwf	___ftmul@cntr
  3338  0252                     l1780:	
  3339  0252  1C36               	btfss	___ftmul@f1,0
  3340  0253  2A5A               	goto	l1784
  3341  0254  0839               	movf	___ftmul@f2,w
  3342  0255  07C1               	addwf	___ftmul@f3_as_product,f
  3343  0256  083A               	movf	___ftmul@f2+1,w
  3344  0257  3DC2               	addwfc	___ftmul@f3_as_product+1,f
  3345  0258  083B               	movf	___ftmul@f2+2,w
  3346  0259  3DC3               	addwfc	___ftmul@f3_as_product+2,f
  3347  025A                     l1784:	
  3348  025A  3001               	movlw	1
  3349  025B                     u2265:	
  3350  025B  36B8               	lsrf	___ftmul@f1+2,f
  3351  025C  0CB7               	rrf	___ftmul@f1+1,f
  3352  025D  0CB6               	rrf	___ftmul@f1,f
  3353  025E  0B89               	decfsz	9,f
  3354  025F  2A5B               	goto	u2265
  3355  0260  3001               	movlw	1
  3356  0261                     u2275:	
  3357  0261  36C3               	lsrf	___ftmul@f3_as_product+2,f
  3358  0262  0CC2               	rrf	___ftmul@f3_as_product+1,f
  3359  0263  0CC1               	rrf	___ftmul@f3_as_product,f
  3360  0264  0B89               	decfsz	9,f
  3361  0265  2A61               	goto	u2275
  3362  0266  3001               	movlw	1
  3363  0267  02C4               	subwf	___ftmul@cntr,f
  3364  0268  1D03               	btfss	3,2
  3365  0269  2A52               	goto	l1780
  3366  026A  0841               	movf	___ftmul@f3_as_product,w
  3367  026B  00F2               	movwf	___ftpack@arg
  3368  026C  0842               	movf	___ftmul@f3_as_product+1,w
  3369  026D  00F3               	movwf	___ftpack@arg+1
  3370  026E  0843               	movf	___ftmul@f3_as_product+2,w
  3371  026F  00F4               	movwf	___ftpack@arg+2
  3372  0270  0840               	movf	___ftmul@exp,w
  3373  0271  00BC               	movwf	??___ftmul
  3374  0272  083C               	movf	??___ftmul,w
  3375  0273  00F5               	movwf	___ftpack@exp
  3376  0274  0845               	movf	___ftmul@sign,w
  3377  0275  00BD               	movwf	??___ftmul+1
  3378  0276  083D               	movf	??___ftmul+1,w
  3379  0277  00F6               	movwf	___ftpack@sign
  3380  0278  3184  243B         	fcall	___ftpack
  3381  027A  0872               	movf	?___ftpack,w
  3382  027B  0020               	movlb	0	; select bank0
  3383  027C  00B6               	movwf	?___ftmul
  3384  027D  0873               	movf	?___ftpack+1,w
  3385  027E  00B7               	movwf	?___ftmul+1
  3386  027F  0874               	movf	?___ftpack+2,w
  3387  0280  00B8               	movwf	?___ftmul+2
  3388  0281  0008               	return
  3389  0282                     __end_of___ftmul:	
  3390                           
  3391                           	psect	text12
  3392  0282                     __ptext12:	
  3393 ;; *************** function ___ftdiv *****************
  3394 ;; Defined at:
  3395 ;;		line 49 in file "C:\Program Files\Microchip\xc8\v1.33\sources\pic\ftdiv.c"
  3396 ;; Parameters:    Size  Location     Type
  3397 ;;  f2              3    6[BANK0 ] float 
  3398 ;;  f1              3    9[BANK0 ] float 
  3399 ;; Auto vars:     Size  Location     Type
  3400 ;;  f3              3   17[BANK0 ] float 
  3401 ;;  sign            1   21[BANK0 ] unsigned char 
  3402 ;;  exp             1   20[BANK0 ] unsigned char 
  3403 ;;  cntr            1   16[BANK0 ] unsigned char 
  3404 ;; Return value:  Size  Location     Type
  3405 ;;                  3    6[BANK0 ] float 
  3406 ;; Registers used:
  3407 ;;		wreg, status,2, status,0, pclath, cstack
  3408 ;; Tracked objects:
  3409 ;;		On entry : 0/0
  3410 ;;		On exit  : 0/0
  3411 ;;		Unchanged: 0/0
  3412 ;; Data sizes:     COMMON   BANK0   BANK1   BANK2   BANK3   BANK4   BANK5   BANK6   BANK7   BANK8   BANK9  BANK10  BANK1
      +1  BANK12
  3413 ;;      Params:         0       6       0       0       0       0       0       0       0       0       0       0       
      +0       0
  3414 ;;      Locals:         0       6       0       0       0       0       0       0       0       0       0       0       
      +0       0
  3415 ;;      Temps:          0       4       0       0       0       0       0       0       0       0       0       0       
      +0       0
  3416 ;;      Totals:         0      16       0       0       0       0       0       0       0       0       0       0       
      +0       0
  3417 ;;Total ram usage:       16 bytes
  3418 ;; Hardware stack levels used:    1
  3419 ;; Hardware stack levels required when called:    2
  3420 ;; This function calls:
  3421 ;;		___ftpack
  3422 ;; This function is called by:
  3423 ;;		_main
  3424 ;; This function uses a non-reentrant model
  3425 ;;
  3426                           
  3427                           
  3428                           ;psect for function ___ftdiv
  3429  0282                     ___ftdiv:	
  3430                           
  3431                           ;incstack = 0
  3432                           ; Regs used in ___ftdiv: [wreg+status,2+status,0+pclath+cstack]
  3433  0282  0020               	movlb	0	; select bank0
  3434  0283  0829               	movf	___ftdiv@f1,w
  3435  0284  00AC               	movwf	??___ftdiv
  3436  0285  082A               	movf	___ftdiv@f1+1,w
  3437  0286  00AD               	movwf	??___ftdiv+1
  3438  0287  082B               	movf	___ftdiv@f1+2,w
  3439  0288  00AE               	movwf	??___ftdiv+2
  3440  0289  1003               	clrc
  3441  028A  0D2D               	rlf	??___ftdiv+1,w
  3442  028B  0D2E               	rlf	??___ftdiv+2,w
  3443  028C  00AF               	movwf	??___ftdiv+3
  3444  028D  082F               	movf	??___ftdiv+3,w
  3445  028E  00B4               	movwf	___ftdiv@exp
  3446  028F  08B4               	movf	___ftdiv@exp,f
  3447  0290  1D03               	skipz
  3448  0291  2A99               	goto	l1708
  3449  0292  3000               	movlw	0
  3450  0293  00A6               	movwf	?___ftdiv
  3451  0294  3000               	movlw	0
  3452  0295  00A7               	movwf	?___ftdiv+1
  3453  0296  3000               	movlw	0
  3454  0297  00A8               	movwf	?___ftdiv+2
  3455  0298  0008               	return
  3456  0299                     l1708:	
  3457  0299  0826               	movf	___ftdiv@f2,w
  3458  029A  00AC               	movwf	??___ftdiv
  3459  029B  0827               	movf	___ftdiv@f2+1,w
  3460  029C  00AD               	movwf	??___ftdiv+1
  3461  029D  0828               	movf	___ftdiv@f2+2,w
  3462  029E  00AE               	movwf	??___ftdiv+2
  3463  029F  1003               	clrc
  3464  02A0  0D2D               	rlf	??___ftdiv+1,w
  3465  02A1  0D2E               	rlf	??___ftdiv+2,w
  3466  02A2  00AF               	movwf	??___ftdiv+3
  3467  02A3  082F               	movf	??___ftdiv+3,w
  3468  02A4  00B5               	movwf	___ftdiv@sign
  3469  02A5  08B5               	movf	___ftdiv@sign,f
  3470  02A6  1D03               	skipz
  3471  02A7  2AAF               	goto	l1714
  3472  02A8  3000               	movlw	0
  3473  02A9  00A6               	movwf	?___ftdiv
  3474  02AA  3000               	movlw	0
  3475  02AB  00A7               	movwf	?___ftdiv+1
  3476  02AC  3000               	movlw	0
  3477  02AD  00A8               	movwf	?___ftdiv+2
  3478  02AE  0008               	return
  3479  02AF                     l1714:	
  3480  02AF  3000               	movlw	0
  3481  02B0  00B1               	movwf	___ftdiv@f3
  3482  02B1  3000               	movlw	0
  3483  02B2  00B2               	movwf	___ftdiv@f3+1
  3484  02B3  3000               	movlw	0
  3485  02B4  00B3               	movwf	___ftdiv@f3+2
  3486  02B5  3089               	movlw	137
  3487  02B6  0735               	addwf	___ftdiv@sign,w
  3488  02B7  00AC               	movwf	??___ftdiv
  3489  02B8  082C               	movf	??___ftdiv,w
  3490  02B9  02B4               	subwf	___ftdiv@exp,f
  3491  02BA  0829               	movf	___ftdiv@f1,w
  3492  02BB  00AC               	movwf	??___ftdiv
  3493  02BC  082A               	movf	___ftdiv@f1+1,w
  3494  02BD  00AD               	movwf	??___ftdiv+1
  3495  02BE  082B               	movf	___ftdiv@f1+2,w
  3496  02BF  00AE               	movwf	??___ftdiv+2
  3497  02C0  3010               	movlw	16
  3498  02C1                     u2115:	
  3499  02C1  36AE               	lsrf	??___ftdiv+2,f
  3500  02C2  0CAD               	rrf	??___ftdiv+1,f
  3501  02C3  0CAC               	rrf	??___ftdiv,f
  3502  02C4  0B89               	decfsz	9,f
  3503  02C5  2AC1               	goto	u2115
  3504  02C6  082C               	movf	??___ftdiv,w
  3505  02C7  00AF               	movwf	??___ftdiv+3
  3506  02C8  082F               	movf	??___ftdiv+3,w
  3507  02C9  00B5               	movwf	___ftdiv@sign
  3508  02CA  0826               	movf	___ftdiv@f2,w
  3509  02CB  00AC               	movwf	??___ftdiv
  3510  02CC  0827               	movf	___ftdiv@f2+1,w
  3511  02CD  00AD               	movwf	??___ftdiv+1
  3512  02CE  0828               	movf	___ftdiv@f2+2,w
  3513  02CF  00AE               	movwf	??___ftdiv+2
  3514  02D0  3010               	movlw	16
  3515  02D1                     u2125:	
  3516  02D1  36AE               	lsrf	??___ftdiv+2,f
  3517  02D2  0CAD               	rrf	??___ftdiv+1,f
  3518  02D3  0CAC               	rrf	??___ftdiv,f
  3519  02D4  0B89               	decfsz	9,f
  3520  02D5  2AD1               	goto	u2125
  3521  02D6  082C               	movf	??___ftdiv,w
  3522  02D7  00AF               	movwf	??___ftdiv+3
  3523  02D8  082F               	movf	??___ftdiv+3,w
  3524  02D9  06B5               	xorwf	___ftdiv@sign,f
  3525  02DA  3080               	movlw	128
  3526  02DB  00AC               	movwf	??___ftdiv
  3527  02DC  082C               	movf	??___ftdiv,w
  3528  02DD  05B5               	andwf	___ftdiv@sign,f
  3529  02DE  17AA               	bsf	___ftdiv@f1+1,7
  3530  02DF  30FF               	movlw	255
  3531  02E0  05A9               	andwf	___ftdiv@f1,f
  3532  02E1  30FF               	movlw	255
  3533  02E2  05AA               	andwf	___ftdiv@f1+1,f
  3534  02E3  3000               	movlw	0
  3535  02E4  05AB               	andwf	___ftdiv@f1+2,f
  3536  02E5  17A7               	bsf	___ftdiv@f2+1,7
  3537  02E6  30FF               	movlw	255
  3538  02E7  05A6               	andwf	___ftdiv@f2,f
  3539  02E8  30FF               	movlw	255
  3540  02E9  05A7               	andwf	___ftdiv@f2+1,f
  3541  02EA  3000               	movlw	0
  3542  02EB  05A8               	andwf	___ftdiv@f2+2,f
  3543  02EC  3018               	movlw	24
  3544  02ED  00AC               	movwf	??___ftdiv
  3545  02EE  082C               	movf	??___ftdiv,w
  3546  02EF  00B0               	movwf	___ftdiv@cntr
  3547  02F0                     l1728:	
  3548  02F0  3001               	movlw	1
  3549  02F1                     u2135:	
  3550  02F1  35B1               	lslf	___ftdiv@f3,f
  3551  02F2  0DB2               	rlf	___ftdiv@f3+1,f
  3552  02F3  0DB3               	rlf	___ftdiv@f3+2,f
  3553  02F4  0B89               	decfsz	9,f
  3554  02F5  2AF1               	goto	u2135
  3555  02F6  0828               	movf	___ftdiv@f2+2,w
  3556  02F7  022B               	subwf	___ftdiv@f1+2,w
  3557  02F8  1D03               	skipz
  3558  02F9  2B00               	goto	u2145
  3559  02FA  0827               	movf	___ftdiv@f2+1,w
  3560  02FB  022A               	subwf	___ftdiv@f1+1,w
  3561  02FC  1D03               	skipz
  3562  02FD  2B00               	goto	u2145
  3563  02FE  0826               	movf	___ftdiv@f2,w
  3564  02FF  0229               	subwf	___ftdiv@f1,w
  3565  0300                     u2145:	
  3566  0300  1C03               	skipc
  3567  0301  2B09               	goto	l1736
  3568  0302  0826               	movf	___ftdiv@f2,w
  3569  0303  02A9               	subwf	___ftdiv@f1,f
  3570  0304  0827               	movf	___ftdiv@f2+1,w
  3571  0305  3BAA               	subwfb	___ftdiv@f1+1,f
  3572  0306  0828               	movf	___ftdiv@f2+2,w
  3573  0307  3BAB               	subwfb	___ftdiv@f1+2,f
  3574  0308  1431               	bsf	___ftdiv@f3,0
  3575  0309                     l1736:	
  3576  0309  3001               	movlw	1
  3577  030A                     u2155:	
  3578  030A  35A9               	lslf	___ftdiv@f1,f
  3579  030B  0DAA               	rlf	___ftdiv@f1+1,f
  3580  030C  0DAB               	rlf	___ftdiv@f1+2,f
  3581  030D  0B89               	decfsz	9,f
  3582  030E  2B0A               	goto	u2155
  3583  030F  3001               	movlw	1
  3584  0310  02B0               	subwf	___ftdiv@cntr,f
  3585  0311  1D03               	btfss	3,2
  3586  0312  2AF0               	goto	l1728
  3587  0313  0831               	movf	___ftdiv@f3,w
  3588  0314  00F2               	movwf	___ftpack@arg
  3589  0315  0832               	movf	___ftdiv@f3+1,w
  3590  0316  00F3               	movwf	___ftpack@arg+1
  3591  0317  0833               	movf	___ftdiv@f3+2,w
  3592  0318  00F4               	movwf	___ftpack@arg+2
  3593  0319  0834               	movf	___ftdiv@exp,w
  3594  031A  00AC               	movwf	??___ftdiv
  3595  031B  082C               	movf	??___ftdiv,w
  3596  031C  00F5               	movwf	___ftpack@exp
  3597  031D  0835               	movf	___ftdiv@sign,w
  3598  031E  00AD               	movwf	??___ftdiv+1
  3599  031F  082D               	movf	??___ftdiv+1,w
  3600  0320  00F6               	movwf	___ftpack@sign
  3601  0321  3184  243B         	fcall	___ftpack
  3602  0323  0872               	movf	?___ftpack,w
  3603  0324  0020               	movlb	0	; select bank0
  3604  0325  00A6               	movwf	?___ftdiv
  3605  0326  0873               	movf	?___ftpack+1,w
  3606  0327  00A7               	movwf	?___ftdiv+1
  3607  0328  0874               	movf	?___ftpack+2,w
  3608  0329  00A8               	movwf	?___ftdiv+2
  3609  032A  0008               	return
  3610  032B                     __end_of___ftdiv:	
  3611                           
  3612                           	psect	text13
  3613  043B                     __ptext13:	
  3614 ;; *************** function ___ftpack *****************
  3615 ;; Defined at:
  3616 ;;		line 62 in file "C:\Program Files\Microchip\xc8\v1.33\sources\common\float.c"
  3617 ;; Parameters:    Size  Location     Type
  3618 ;;  arg             3    2[COMMON] unsigned um
  3619 ;;  exp             1    5[COMMON] unsigned char 
  3620 ;;  sign            1    6[COMMON] unsigned char 
  3621 ;; Auto vars:     Size  Location     Type
  3622 ;;		None
  3623 ;; Return value:  Size  Location     Type
  3624 ;;                  3    2[COMMON] float 
  3625 ;; Registers used:
  3626 ;;		wreg, status,2, status,0
  3627 ;; Tracked objects:
  3628 ;;		On entry : 0/0
  3629 ;;		On exit  : 0/0
  3630 ;;		Unchanged: 0/0
  3631 ;; Data sizes:     COMMON   BANK0   BANK1   BANK2   BANK3   BANK4   BANK5   BANK6   BANK7   BANK8   BANK9  BANK10  BANK1
      +1  BANK12
  3632 ;;      Params:         5       0       0       0       0       0       0       0       0       0       0       0       
      +0       0
  3633 ;;      Locals:         0       0       0       0       0       0       0       0       0       0       0       0       
      +0       0
  3634 ;;      Temps:          3       0       0       0       0       0       0       0       0       0       0       0       
      +0       0
  3635 ;;      Totals:         8       0       0       0       0       0       0       0       0       0       0       0       
      +0       0
  3636 ;;Total ram usage:        8 bytes
  3637 ;; Hardware stack levels used:    1
  3638 ;; Hardware stack levels required when called:    1
  3639 ;; This function calls:
  3640 ;;		Nothing
  3641 ;; This function is called by:
  3642 ;;		___ftdiv
  3643 ;;		___ftmul
  3644 ;;		___lltoft
  3645 ;; This function uses a non-reentrant model
  3646 ;;
  3647                           
  3648                           
  3649                           ;psect for function ___ftpack
  3650  043B                     ___ftpack:	
  3651                           
  3652                           ;incstack = 0
  3653                           ; Regs used in ___ftpack: [wreg+status,2+status,0]
  3654  043B  0875               	movf	___ftpack@exp,w
  3655  043C  1903               	btfsc	3,2
  3656  043D  2C43               	goto	l1608
  3657  043E  0874               	movf	___ftpack@arg+2,w
  3658  043F  0473               	iorwf	___ftpack@arg+1,w
  3659  0440  0472               	iorwf	___ftpack@arg,w
  3660  0441  1D03               	skipz
  3661  0442  2C54               	goto	l1614
  3662  0443                     l1608:	
  3663  0443  3000               	movlw	0
  3664  0444  00F2               	movwf	?___ftpack
  3665  0445  3000               	movlw	0
  3666  0446  00F3               	movwf	?___ftpack+1
  3667  0447  3000               	movlw	0
  3668  0448  00F4               	movwf	?___ftpack+2
  3669  0449  0008               	return
  3670  044A                     l1612:	
  3671  044A  3001               	movlw	1
  3672  044B  00F7               	movwf	??___ftpack
  3673  044C  0877               	movf	??___ftpack,w
  3674  044D  07F5               	addwf	___ftpack@exp,f
  3675  044E  3001               	movlw	1
  3676  044F                     u1925:	
  3677  044F  36F4               	lsrf	___ftpack@arg+2,f
  3678  0450  0CF3               	rrf	___ftpack@arg+1,f
  3679  0451  0CF2               	rrf	___ftpack@arg,f
  3680  0452  0B89               	decfsz	9,f
  3681  0453  2C4F               	goto	u1925
  3682  0454                     l1614:	
  3683  0454  30FE               	movlw	254
  3684  0455  0574               	andwf	___ftpack@arg+2,w
  3685  0456  1903               	btfsc	3,2
  3686  0457  2C6D               	goto	l386
  3687  0458  2C4A               	goto	l1612
  3688  0459                     l1616:	
  3689  0459  3001               	movlw	1
  3690  045A  00F7               	movwf	??___ftpack
  3691  045B  0877               	movf	??___ftpack,w
  3692  045C  07F5               	addwf	___ftpack@exp,f
  3693  045D  3001               	movlw	1
  3694  045E  07F2               	addwf	___ftpack@arg,f
  3695  045F  3000               	movlw	0
  3696  0460  1803               	skipnc
  3697  0461  3001               	movlw	1
  3698  0462  07F3               	addwf	___ftpack@arg+1,f
  3699  0463  3000               	movlw	0
  3700  0464  1803               	skipnc
  3701  0465  3001               	movlw	1
  3702  0466  07F4               	addwf	___ftpack@arg+2,f
  3703  0467  3001               	movlw	1
  3704  0468                     u1945:	
  3705  0468  36F4               	lsrf	___ftpack@arg+2,f
  3706  0469  0CF3               	rrf	___ftpack@arg+1,f
  3707  046A  0CF2               	rrf	___ftpack@arg,f
  3708  046B  0B89               	decfsz	9,f
  3709  046C  2C68               	goto	u1945
  3710  046D                     l386:	
  3711  046D  30FF               	movlw	255
  3712  046E  0574               	andwf	___ftpack@arg+2,w
  3713  046F  1903               	btfsc	3,2
  3714  0470  2C7A               	goto	l1624
  3715  0471  2C59               	goto	l1616
  3716  0472                     l1622:	
  3717  0472  3001               	movlw	1
  3718  0473  02F5               	subwf	___ftpack@exp,f
  3719  0474  3001               	movlw	1
  3720  0475                     u1965:	
  3721  0475  35F2               	lslf	___ftpack@arg,f
  3722  0476  0DF3               	rlf	___ftpack@arg+1,f
  3723  0477  0DF4               	rlf	___ftpack@arg+2,f
  3724  0478  0B89               	decfsz	9,f
  3725  0479  2C75               	goto	u1965
  3726  047A                     l1624:	
  3727  047A  1FF3               	btfss	___ftpack@arg+1,7
  3728  047B  2C72               	goto	l1622
  3729  047C  1875               	btfsc	___ftpack@exp,0
  3730  047D  2C84               	goto	l392
  3731  047E  30FF               	movlw	255
  3732  047F  05F2               	andwf	___ftpack@arg,f
  3733  0480  307F               	movlw	127
  3734  0481  05F3               	andwf	___ftpack@arg+1,f
  3735  0482  30FF               	movlw	255
  3736  0483  05F4               	andwf	___ftpack@arg+2,f
  3737  0484                     l392:	
  3738  0484  1003               	clrc
  3739  0485  0CF5               	rrf	___ftpack@exp,f
  3740  0486  0875               	movf	___ftpack@exp,w
  3741  0487  00F7               	movwf	??___ftpack
  3742  0488  01F8               	clrf	??___ftpack+1
  3743  0489  01F9               	clrf	??___ftpack+2
  3744  048A  3010               	movlw	16
  3745  048B                     u1995:	
  3746  048B  35F7               	lslf	??___ftpack,f
  3747  048C  0DF8               	rlf	??___ftpack+1,f
  3748  048D  0DF9               	rlf	??___ftpack+2,f
  3749  048E  0B89               	decfsz	9,f
  3750  048F  2C8B               	goto	u1995
  3751  0490  0877               	movf	??___ftpack,w
  3752  0491  04F2               	iorwf	___ftpack@arg,f
  3753  0492  0878               	movf	??___ftpack+1,w
  3754  0493  04F3               	iorwf	___ftpack@arg+1,f
  3755  0494  0879               	movf	??___ftpack+2,w
  3756  0495  04F4               	iorwf	___ftpack@arg+2,f
  3757  0496  0876               	movf	___ftpack@sign,w
  3758  0497  1903               	btfsc	3,2
  3759  0498  0008               	return
  3760  0499  17F4               	bsf	___ftpack@arg+2,7
  3761  049A  0008               	return
  3762  049B                     __end_of___ftpack:	
  3763                           
  3764                           	psect	intentry
  3765  0004                     __pintentry:	
  3766 ;; *************** function _isr *****************
  3767 ;; Defined at:
  3768 ;;		line 140 in file "main.c"
  3769 ;; Parameters:    Size  Location     Type
  3770 ;;		None
  3771 ;; Auto vars:     Size  Location     Type
  3772 ;;		None
  3773 ;; Return value:  Size  Location     Type
  3774 ;;		None               void
  3775 ;; Registers used:
  3776 ;;		wreg, status,2, status,0
  3777 ;; Tracked objects:
  3778 ;;		On entry : 0/0
  3779 ;;		On exit  : 0/0
  3780 ;;		Unchanged: 0/0
  3781 ;; Data sizes:     COMMON   BANK0   BANK1   BANK2   BANK3   BANK4   BANK5   BANK6   BANK7   BANK8   BANK9  BANK10  BANK1
      +1  BANK12
  3782 ;;      Params:         0       0       0       0       0       0       0       0       0       0       0       0       
      +0       0
  3783 ;;      Locals:         0       0       0       0       0       0       0       0       0       0       0       0       
      +0       0
  3784 ;;      Temps:          2       0       0       0       0       0       0       0       0       0       0       0       
      +0       0
  3785 ;;      Totals:         2       0       0       0       0       0       0       0       0       0       0       0       
      +0       0
  3786 ;;Total ram usage:        2 bytes
  3787 ;; Hardware stack levels used:    1
  3788 ;; This function calls:
  3789 ;;		Nothing
  3790 ;; This function is called by:
  3791 ;;		Interrupt level 1
  3792 ;; This function uses a non-reentrant model
  3793 ;;
  3794                           
  3795  0004                     _isr:	
  3796                           
  3797                           ;incstack = 0
  3798                           ; Regs used in _isr: [wreg+status,2+status,0]
  3799  0004  147E               	bsf	126,0	;set compiler interrupt flag
  3800  0005  3180               	pagesel	$
  3801  0006  0020               	movlb	0	; select bank0
  3802  0007  087F               	movf	127,w
  3803  0008  00F1               	movwf	??_isr+1
  3804                           
  3805                           ;main.c: 143: static int cnt = 0;
  3806                           ;main.c: 146: if (TMR0IF) {
  3807  0009  1D0B               	btfss	11,2	;volatile
  3808  000A  282D               	goto	i1l81
  3809                           
  3810                           ;main.c: 148: if (++cnt > 126) {
  3811  000B  3001               	movlw	1
  3812  000C  07EC               	addwf	isr@cnt,f
  3813  000D  3000               	movlw	0
  3814  000E  3DED               	addwfc	isr@cnt+1,f
  3815  000F  086D               	movf	isr@cnt+1,w
  3816  0010  3A80               	xorlw	128
  3817  0011  00F0               	movwf	??_isr
  3818  0012  3080               	movlw	128
  3819  0013  0270               	subwf	??_isr,w
  3820  0014  1D03               	skipz
  3821  0015  2818               	goto	u168_25
  3822  0016  307F               	movlw	127
  3823  0017  026C               	subwf	isr@cnt,w
  3824  0018                     u168_25:	
  3825  0018  1C03               	skipc
  3826  0019  282C               	goto	i1l1520
  3827                           
  3828                           ;main.c: 149: LATBbits.LATB7 = ~LATBbits.LATB7;
  3829  001A  1003               	clrc
  3830  001B  0022               	movlb	2	; select bank2
  3831  001C  1F8D               	btfss	13,7	;volatile
  3832  001D  1403               	setc
  3833  001E  1C03               	btfss	3,0
  3834  001F  2823               	goto	u169_20
  3835  0020  0022               	movlb	2	; select bank2
  3836  0021  178D               	bsf	13,7	;volatile
  3837  0022  2825               	goto	i1l1516
  3838  0023                     u169_20:	
  3839  0023  0022               	movlb	2	; select bank2
  3840  0024  138D               	bcf	13,7	;volatile
  3841  0025                     i1l1516:	
  3842                           
  3843                           ;main.c: 151: cnt = 0;
  3844  0025  0020               	movlb	0	; select bank0
  3845  0026  01EC               	clrf	isr@cnt
  3846  0027  01ED               	clrf	isr@cnt+1
  3847                           
  3848                           ;main.c: 152: bMedida = TRUE;
  3849  0028  3001               	movlw	1
  3850  0029  00F0               	movwf	??_isr
  3851  002A  0870               	movf	??_isr,w
  3852  002B  00EE               	movwf	_bMedida	;volatile
  3853  002C                     i1l1520:	
  3854                           
  3855                           ;main.c: 153: }
  3856                           ;main.c: 155: TMR0IF = 0;
  3857  002C  110B               	bcf	11,2	;volatile
  3858  002D                     i1l81:	
  3859  002D  0871               	movf	??_isr+1,w
  3860  002E  0020               	movlb	0	; select bank0
  3861  002F  00FF               	movwf	127
  3862  0030  107E               	bcf	126,0	;clear compiler interrupt flag
  3863  0031  0009               	retfie
  3864  0032                     __end_of_isr:	
  3865  007E                     btemp	set	126	;btemp
  3866  007E                     pic14e$flags	set	126
  3867  007E                     wtemp	set	126
  3868  007E                     wtemp0	set	126
  3869  0080                     wtemp1	set	128
  3870  0082                     wtemp2	set	130
  3871  0084                     wtemp3	set	132
  3872  0086                     wtemp4	set	134
  3873  0088                     wtemp5	set	136
  3874  007F                     wtemp6	set	127
  3875  007E                     ttemp	set	126
  3876  007E                     ttemp0	set	126
  3877  0081                     ttemp1	set	129
  3878  0084                     ttemp2	set	132
  3879  0087                     ttemp3	set	135
  3880  007F                     ttemp4	set	127
  3881  007E                     ltemp	set	126
  3882  007E                     ltemp0	set	126
  3883  0082                     ltemp1	set	130
  3884  0086                     ltemp2	set	134
  3885  0080                     ltemp3	set	128


Data Sizes:
    Strings     5
    Constant    0
    Data        2
    BSS         38
    Persistent  0
    Stack       0

Auto Spaces:
    Space          Size  Autos    Used
    COMMON           14     10      12
    BANK0            80     60      79
    BANK1            80      2      21
    BANK2            80      0       0
    BANK3            80      0       0
    BANK4            80      0       0
    BANK5            80      0       0
    BANK6            80      0       0
    BANK7            80      0       0
    BANK8            80      0       0
    BANK9            80      0       0
    BANK10           80      0       0
    BANK11           80      0       0
    BANK12           48      0       0

Pointer List with Targets:

    ultoa@buf	PTR unsigned char  size(1) Largest target is 5
		 -> Resul(BANK1[5]), 

    sp__ultoa	PTR unsigned char  size(1) Largest target is 5
		 -> Resul(BANK1[5]), 

    ltoa@buf	PTR unsigned char  size(1) Largest target is 5
		 -> Resul(BANK1[5]), 

    ltoa@cp	PTR unsigned char  size(1) Largest target is 5
		 -> Resul(BANK1[5]), 

    printVal@str	PTR unsigned char  size(2) Largest target is 5
		 -> Resul(BANK1[5]), STR_1(CODE[5]), 

    sp__ltoa	PTR unsigned char  size(1) Largest target is 5
		 -> Resul(BANK1[5]), 


Critical Paths under _main in COMMON

    _main->_initPD3535
    _printVal->_disChar
    _disChar->_snd4094
    _ultoa->___lldiv
    _ultoa->___llmod
    _initPD3535->_snd4094
    ___lltoft->___ftpack
    ___ftmul->___ftpack
    ___ftdiv->___ftpack

Critical Paths under _isr in COMMON

    None.

Critical Paths under _main in BANK0

    _main->___fttol
    _ltoa->_ultoa
    _ultoa->___lldiv
    ___fttol->___ftmul
    ___ftmul->___ftdiv
    ___ftdiv->___lltoft

Critical Paths under _isr in BANK0

    None.

Critical Paths under _main in BANK1

    None.

Critical Paths under _isr in BANK1

    None.

Critical Paths under _main in BANK2

    None.

Critical Paths under _isr in BANK2

    None.

Critical Paths under _main in BANK3

    None.

Critical Paths under _isr in BANK3

    None.

Critical Paths under _main in BANK4

    None.

Critical Paths under _isr in BANK4

    None.

Critical Paths under _main in BANK5

    None.

Critical Paths under _isr in BANK5

    None.

Critical Paths under _main in BANK6

    None.

Critical Paths under _isr in BANK6

    None.

Critical Paths under _main in BANK7

    None.

Critical Paths under _isr in BANK7

    None.

Critical Paths under _main in BANK8

    None.

Critical Paths under _isr in BANK8

    None.

Critical Paths under _main in BANK9

    None.

Critical Paths under _isr in BANK9

    None.

Critical Paths under _main in BANK10

    None.

Critical Paths under _isr in BANK10

    None.

Critical Paths under _main in BANK11

    None.

Critical Paths under _isr in BANK11

    None.

Critical Paths under _main in BANK12

    None.

Critical Paths under _isr in BANK12

    None.

Call Graph Tables:

 ---------------------------------------------------------------------------------
 (Depth) Function   	        Calls       Base Space   Used Autos Params    Refs
 ---------------------------------------------------------------------------------
 (0) _main                                                11    11      0   12674
                                             52 BANK0      8     8      0
                                              0 BANK1      2     2      0
                            ___ftdiv
                            ___ftmul
                            ___fttol
                           ___lltoft
                         _initPD3535
                               _ltoa
                           _printVal
 ---------------------------------------------------------------------------------
 (1) _printVal                                             5     3      2     756
                                              0 BANK0      5     3      2
                            _disChar
 ---------------------------------------------------------------------------------
 (2) _disChar                                              4     4      0     438
                                              6 COMMON     4     4      0
                            _snd4094
 ---------------------------------------------------------------------------------
 (1) _ltoa                                                 9     3      6    1997
                                             19 BANK0      9     3      6
                              _ultoa
 ---------------------------------------------------------------------------------
 (2) _ultoa                                               13     7      6    1568
                                              6 BANK0     13     7      6
                            ___lldiv
                            ___llmod
 ---------------------------------------------------------------------------------
 (3) ___llmod                                             10     2      8     386
                                              2 COMMON     8     0      8
                                              0 BANK0      2     2      0
 ---------------------------------------------------------------------------------
 (3) ___lldiv                                             14     6      8     549
                                              2 COMMON     8     0      8
                                              0 BANK0      6     6      0
 ---------------------------------------------------------------------------------
 (1) _initPD3535                                           4     4      0     438
                                              6 COMMON     4     4      0
                            _snd4094
 ---------------------------------------------------------------------------------
 (3) _snd4094                                              4     2      2     336
                                              2 COMMON     4     2      2
 ---------------------------------------------------------------------------------
 (1) ___lltoft                                             6     2      4    2629
                                              0 BANK0      6     2      4
                           ___ftpack
 ---------------------------------------------------------------------------------
 (1) ___fttol                                             14    10      4     448
                                             38 BANK0     14    10      4
                            ___ftdiv (ARG)
                            ___ftmul (ARG)
                           ___lltoft (ARG)
 ---------------------------------------------------------------------------------
 (1) ___ftmul                                             16    10      6    3169
                                             22 BANK0     16    10      6
                            ___ftdiv (ARG)
                           ___ftpack
                           ___lltoft (ARG)
 ---------------------------------------------------------------------------------
 (1) ___ftdiv                                             16    10      6    3101
                                              6 BANK0     16    10      6
                           ___ftpack
                           ___lltoft (ARG)
 ---------------------------------------------------------------------------------
 (2) ___ftpack                                             8     3      5    2373
                                              2 COMMON     8     3      5
 ---------------------------------------------------------------------------------
 Estimated maximum stack depth 3
 ---------------------------------------------------------------------------------
 (Depth) Function   	        Calls       Base Space   Used Autos Params    Refs
 ---------------------------------------------------------------------------------
 (4) _isr                                                  2     2      0       0
                                              0 COMMON     2     2      0
 ---------------------------------------------------------------------------------
 Estimated maximum stack depth 4
 ---------------------------------------------------------------------------------

 Call Graph Graphs:

 _main (ROOT)
   ___ftdiv
     ___ftpack
     ___lltoft (ARG)
       ___ftpack
   ___ftmul
     ___ftdiv (ARG)
       ___ftpack
       ___lltoft (ARG)
         ___ftpack
     ___ftpack (ARG)
     ___lltoft (ARG)
       ___ftpack
   ___fttol
     ___ftdiv (ARG)
       ___ftpack
       ___lltoft (ARG)
         ___ftpack
     ___ftmul (ARG)
       ___ftdiv (ARG)
         ___ftpack
         ___lltoft (ARG)
           ___ftpack
       ___ftpack (ARG)
       ___lltoft (ARG)
         ___ftpack
     ___lltoft (ARG)
       ___ftpack
   ___lltoft
     ___ftpack
   _initPD3535
     _snd4094
   _ltoa
     _ultoa
       ___lldiv
       ___llmod
   _printVal
     _disChar
       _snd4094

 _isr (ROOT)

 Address spaces:
Name               Size   Autos  Total    Cost      Usage
BIGRAM             3F0      0       0       0        0.0%
NULL                 0      0       0       0        0.0%
CODE                 0      0       0       0        0.0%
BITCOMMON            E      0       0       1        0.0%
BITSFR0              0      0       0       1        0.0%
SFR0                 0      0       0       1        0.0%
COMMON               E      A       C       2       85.7%
BITSFR1              0      0       0       2        0.0%
SFR1                 0      0       0       2        0.0%
BITSFR2              0      0       0       3        0.0%
SFR2                 0      0       0       3        0.0%
STACK                0      0       0       3        0.0%
BITBANK0            50      0       0       4        0.0%
BITSFR3              0      0       0       4        0.0%
SFR3                 0      0       0       4        0.0%
BANK0               50     3C      4F       5       98.8%
BITSFR4              0      0       0       5        0.0%
SFR4                 0      0       0       5        0.0%
BITBANK1            50      0       0       6        0.0%
BITSFR5              0      0       0       6        0.0%
SFR5                 0      0       0       6        0.0%
BANK1               50      2      15       7       26.3%
BITSFR6              0      0       0       7        0.0%
SFR6                 0      0       0       7        0.0%
BITBANK2            50      0       0       8        0.0%
BITSFR7              0      0       0       8        0.0%
SFR7                 0      0       0       8        0.0%
BANK2               50      0       0       9        0.0%
BITSFR8              0      0       0       9        0.0%
SFR8                 0      0       0       9        0.0%
BITBANK3            50      0       0      10        0.0%
BITSFR9              0      0       0      10        0.0%
SFR9                 0      0       0      10        0.0%
BANK3               50      0       0      11        0.0%
BITSFR10             0      0       0      11        0.0%
SFR10                0      0       0      11        0.0%
BITBANK4            50      0       0      12        0.0%
BITSFR11             0      0       0      12        0.0%
SFR11                0      0       0      12        0.0%
BANK4               50      0       0      13        0.0%
BITSFR12             0      0       0      13        0.0%
SFR12                0      0       0      13        0.0%
BITBANK5            50      0       0      14        0.0%
BITSFR13             0      0       0      14        0.0%
SFR13                0      0       0      14        0.0%
BANK5               50      0       0      15        0.0%
BITSFR14             0      0       0      15        0.0%
SFR14                0      0       0      15        0.0%
BITBANK6            50      0       0      16        0.0%
BITSFR15             0      0       0      16        0.0%
SFR15                0      0       0      16        0.0%
BANK6               50      0       0      17        0.0%
BITSFR16             0      0       0      17        0.0%
SFR16                0      0       0      17        0.0%
BITBANK7            50      0       0      18        0.0%
BITSFR17             0      0       0      18        0.0%
SFR17                0      0       0      18        0.0%
BANK7               50      0       0      19        0.0%
BITSFR18             0      0       0      19        0.0%
SFR18                0      0       0      19        0.0%
BITSFR19             0      0       0      20        0.0%
SFR19                0      0       0      20        0.0%
ABS                  0      0      70      20        0.0%
BITBANK8            50      0       0      21        0.0%
BITSFR20             0      0       0      21        0.0%
SFR20                0      0       0      21        0.0%
BANK8               50      0       0      22        0.0%
BITSFR21             0      0       0      22        0.0%
SFR21                0      0       0      22        0.0%
BITBANK9            50      0       0      23        0.0%
BITSFR22             0      0       0      23        0.0%
SFR22                0      0       0      23        0.0%
BANK9               50      0       0      24        0.0%
BITSFR23             0      0       0      24        0.0%
SFR23                0      0       0      24        0.0%
BITBANK10           50      0       0      25        0.0%
BITSFR24             0      0       0      25        0.0%
SFR24                0      0       0      25        0.0%
BANK10              50      0       0      26        0.0%
BITSFR25             0      0       0      26        0.0%
SFR25                0      0       0      26        0.0%
BITBANK11           50      0       0      27        0.0%
BITSFR26             0      0       0      27        0.0%
SFR26                0      0       0      27        0.0%
BANK11              50      0       0      28        0.0%
BITSFR27             0      0       0      28        0.0%
SFR27                0      0       0      28        0.0%
BITBANK12           30      0       0      29        0.0%
BITSFR28             0      0       0      29        0.0%
SFR28                0      0       0      29        0.0%
BANK12              30      0       0      30        0.0%
BITSFR29             0      0       0      30        0.0%
SFR29                0      0       0      30        0.0%
BITSFR30             0      0       0      31        0.0%
SFR30                0      0       0      31        0.0%
DATA                 0      0      70      31        0.0%
BITSFR31             0      0       0      32        0.0%
SFR31                0      0       0      32        0.0%


Microchip Technology PIC Macro Assembler V1.33 build 59893 
Symbol Table                                                                                   Sun Dec 28 09:59:02 2014

                      _i 0068              __CFG_CP$OFF 0000                       l70 00FB  
                     l68 00F9                       _ip 00AB                       _vr 0064  
                    l195 05AE                      l196 05C4                      l197 05B2  
                    l392 0484                      l386 046D                      l558 03A0  
                    _PEN 10B2                      _fvr 00A8                      _isr 0004  
                    _res 006A                      _lux 0060                      wreg 0009  
           __CFG_LVP$OFF 0000             ___ftdiv@cntr 0030             ___ftdiv@sign 0035  
                   l1612 044A                     l1540 05B3                     l1622 0472  
                   l1614 0454                     l1624 047A                     l1616 0459  
                   l1608 0443                     l1800 03CD                     l1560 04BA  
                   l1714 02AF                     l1708 0299                     l1820 040B  
                   l1572 04E5                     l1636 0335                     l1750 01E5  
                   l1830 0424                     l1558 04AC                     l1582 04F7  
                   l1646 0362                     l1736 0309                     l1728 02F0  
                   l1568 04DA                     l1584 0505                     l1592 0528  
                   l1904 00DC                     l1834 0432                     l1826 0418  
                   l1818 03FD                     l1842 05D2                     l1780 0252  
                   l1772 023E                     l1756 01FB                     l1828 0421  
                   l1844 05E2                     l1588 051D                     l1684 0563  
                   l1676 0534                     l1916 0135                     l1678 054E  
                   l1784 025A                     l1768 0236                     l1698 058F  
                   l1894 00C0                     l1888 008A                     ?_isr 0070  
                   STR_1 0700                     u2115 02C1                     u2125 02D1  
                   u2205 0217                     u2135 02F1                     u2055 0557  
                   u2145 0300                     u2225 023F                     u2305 03D4  
                   u2155 030A                     u2235 0245                     u2335 03FE  
                   u2415 0088                     u2265 025B                     u2425 00BE  
                   u2275 0261                     u2195 0207                     u2507 00A7  
                   u2365 0419                     u1805 04CF                     u2445 00F7  
                   u2517 00D5                     u2527 05BB                     u1815 04DB  
                   u2537 05C7                     u1745 05B4                     u2465 0133  
                   u2395 05D7                     u2475 0136                     u1925 044F  
                   u1845 04FA                     u1775 04AF                     u1945 0468  
                   u1865 0513                     u2497 0095                     u1795 04BB  
                   u1875 051E                     u1965 0475                     u1895 0616  
                   u1995 048B                     _RCEN 10B3                     i1l81 002D  
                   _TMR0 0015             __CFG_WRT$OFF 0000                     _main 004F  
           ___ftpack@arg 0072             ___ftpack@exp 0075                     _ltoa 0571  
                   fsr0h 0005                     fsr1h 0007                     fsr0l 0004  
                   indf0 0000                     indf1 0001                     fsr1l 0006  
                   btemp 007E              snd4094@dato 0072                     _wlux 00A4  
                   ltemp 007E                     start 0032                     ttemp 007E  
                   wtemp 007E            __CFG_MCLRE$ON 0000             ___ftmul@cntr 0044  
           ___ftmul@sign 0045             ___fttol@exp1 0053             ___fttol@lval 004F  
                  ??_isr 0070                    ?_main 0070                    ?_ltoa 0033  
          __CFG_WDTE$OFF 0000          __end_of___ftdiv 032B          __end_of___lldiv 04EE  
        __end_of___ftmul 0282          __end_of___llmod 0531          __end_of___fttol 043B  
                  _TRISA 008C          __end_of_disChar 061D             ___lltoft@exp 0025  
                  _Resul 00AE          __end_of_snd4094 05CD            ___ftpack@sign 0076  
                  _resul 00A0                    main@i 00B3                    _ultoa 032B  
         __CFG_BOREN$OFF 0000                    ltemp0 007E                    ltemp1 0082  
                  ltemp2 0086                    ltemp3 0080                    ttemp0 007E  
                  ttemp1 0081                    ttemp2 0084                    ttemp3 0087  
                  ttemp4 007F                    status 0003                    wtemp0 007E  
                  wtemp1 0080                    wtemp2 0082                    wtemp3 0084  
                  wtemp4 0086                    wtemp5 0088                    wtemp6 007F  
        __initialization 0034             __end_of_main 01CE             __end_of_ltoa 05A1  
                 ??_main 0054            ___fttol@sign1 004E                   ??_ltoa 0039  
       ___llmod@dividend 0076                   _ADRESH 009C                   _ADRESL 009B  
                 _ANSELA 018C                   _ANSELB 018D         __end_of___ftpack 049B  
                 ?_ultoa 0026         __end_of___lltoft 05F7                   _RB4PPS 0E9C  
                 _RB6PPS 0E9E                   i1l1520 002C                   i1l1516 0025  
                 u168_25 0018                   u169_20 0023                   _TMR0IF 005A  
                 _SSPBUF 0211           __CFG_PWRTE$OFF 0000                   _ad_res 005C  
         __CFG_STVREN$ON 0000                ??___ftdiv 002C                ??___lldiv 0020  
              ??___ftmul 003C                ??___llmod 0020                ??___fttol 004A  
              ??_disChar 0076                ??_snd4094 0074    ___ftmul@f3_as_product 0041  
                 isr@cnt 006C             __pdataCOMMON 007A                   ltoa@cp 003A  
       __end_of_printVal 0571                   ultoa@c 0031                   ultoa@v 002D  
__end_of__initialization 004B               ___ftdiv@f1 0029               ___ftdiv@f2 0026  
             ___ftdiv@f3 0031               ___ftmul@f1 0036               ___ftmul@f2 0039  
             ___fttol@f1 0046           __pcstackCOMMON 0070               ___lltoft@c 0020  
          __end_of_ultoa 03B4           _OPTION_REGbits 0095                  ??_ultoa 002C  
             __pbssBANK0 005C               __pbssBANK1 00A0               __pmaintext 004F  
             __pintentry 0004                ?___ftpack 0072                ?___lltoft 0020  
                _SSP1ADD 0212               _initPD3535 061D                  _bMedida 006E  
              ?_printVal 0020                  ___ftdiv 0282                  ___lldiv 049B  
                ___ftmul 01CE                  ___llmod 04EE                  ___fttol 03B4  
                _disChar 05F7               ??___ftpack 0077               ??___lltoft 0024  
                __ptext1 0531                  __ptext2 05F7                  __ptext3 0571  
                __ptext4 032B                  __ptext5 04EE                  __ptext6 049B  
                __ptext7 061D                  __ptext8 05A1                  __ptext9 05CD  
                _snd4094 05A1               disChar@pos 007A             __size_of_isr 002E  
                clrloop0 0631     end_of_initialization 004B                  ltoa@buf 003B  
                ltoa@val 0033          ___lldiv@divisor 0072          ___lldiv@counter 0025  
             ??_printVal 0022             __pstringtext 0700         __CFG_FOSC$INTOSC 0000  
              _TRISBbits 008D              ?_initPD3535 0070              printVal@str 0020  
            ___ftdiv@exp 0034              ___ftmul@exp 0040            __pidataCOMMON 0705  
    start_initialization 0034              __end_of_isr 0032          ___llmod@divisor 0072  
        ___llmod@counter 0021      __size_of_initPD3535 0013        __size_of___ftpack 0060  
      __size_of___lltoft 002A                ___latbits 0002            __pcstackBANK0 0020  
          __pcstackBANK1 00B3      __end_of__stringdata 0705                 ?___ftdiv 0026  
               ?___lldiv 0072                 ?___ftmul 0036                 ?___llmod 0072  
               ?___fttol 0046        __size_of_printVal 0040                 ?_disChar 0070  
               ?_snd4094 0072           __size_of_ultoa 0089                disChar@ch 0077  
               _LATBbits 010D                clear_ram0 0630                 _PIE1bits 0091  
               _PIR1bits 0011                 _SSP1CON2 0216                 _SSP1STAT 0214  
             _ADCON0bits 009D               _ADCON1bits 009E              __stringdata 0700  
         initPD3535@dato 0078           initPD3535@modo 0077                 _WPUBbits 020D  
            _OPA2CONbits 0515             ??_initPD3535 0076         __size_of___ftdiv 00A9  
       __size_of___lldiv 0053         __size_of___ftmul 00B4         __size_of___llmod 0043  
       __size_of___fttol 0087                 ___ftpack 043B                 ___lltoft 05CD  
       __size_of_disChar 0026       __end_of_initPD3535 0630         __size_of_snd4094 002C  
               __ptext10 03B4                 __ptext11 01CE                 __ptext12 0282  
               __ptext13 043B             _SSP1CON2bits 0216              disChar@buff 0078  
          __size_of_main 017F            __size_of_ltoa 0030                 _printVal 0531  
              printVal@i 0023                 snd4094@i 0075               _INTCONbits 000B  
              ultoa@base 002A              pic14e$flags 007E                 intlevel1 0000  
               ltoa@base 0037         ___lldiv@dividend 0076        __CFG_CLKOUTEN$OFF 0000  
            _SSP1CONbits 0215               _OSCCONbits 0099                 ultoa@buf 0032  
               ultoa@val 0026         ___lldiv@quotient 0021              _SSPCON2bits 0216  
