

Microchip Technology PIC LITE Macro Assembler V1.33 build 59893 
                                                                                               Sun Dec 28 10:30:20 2014

Microchip Technology Omniscient Code Generator (Lite mode) build 59893
     1                           	processor	16F1709
     2                           	opt	pw 120
     3                           	opt	lm
     4                           	psect	idataCOMMON,global,class=CODE,delta=2
     5                           	psect	stringtext,global,reloc=256,class=STRCODE,delta=2
     6                           	psect	cinit,global,class=CODE,merge=1,delta=2
     7                           	psect	dataCOMMON,global,class=COMMON,space=1,delta=1
     8                           	psect	bssBANK0,global,class=BANK0,space=1,delta=1
     9                           	psect	bssBANK1,global,class=BANK1,space=1,delta=1
    10                           	psect	clrtext,global,class=CODE,delta=2
    11                           	psect	cstackBANK1,global,class=BANK1,space=1,delta=1
    12                           	psect	cstackCOMMON,global,class=COMMON,space=1,delta=1
    13                           	psect	cstackBANK0,global,class=BANK0,space=1,delta=1
    14                           	psect	maintext,global,class=CODE,merge=1,split=1,delta=2
    15                           	psect	text1,local,class=CODE,merge=1,delta=2
    16                           	psect	text2,local,class=CODE,merge=1,delta=2
    17                           	psect	text3,local,class=CODE,merge=1,delta=2
    18                           	psect	text4,local,class=CODE,merge=1,delta=2
    19                           	psect	text5,local,class=CODE,merge=1,delta=2
    20                           	psect	text6,local,class=CODE,merge=1,delta=2
    21                           	psect	text7,local,class=CODE,merge=1,delta=2
    22                           	psect	text8,local,class=CODE,merge=1,delta=2
    23                           	psect	text9,local,class=CODE,merge=1,delta=2
    24                           	psect	text10,local,class=CODE,merge=1,delta=2
    25                           	psect	text11,local,class=CODE,merge=1,delta=2
    26                           	psect	text12,local,class=CODE,merge=1,delta=2
    27                           	psect	text13,local,class=CODE,merge=1,delta=2
    28                           	psect	text14,local,class=CODE,merge=1,delta=2
    29                           	psect	intentry,global,class=CODE,delta=2
    30                           	dabs	1,0x7E,2
    31  0000                     	;# 
    32  0001                     	;# 
    33  0002                     	;# 
    34  0003                     	;# 
    35  0004                     	;# 
    36  0005                     	;# 
    37  0006                     	;# 
    38  0007                     	;# 
    39  0008                     	;# 
    40  0009                     	;# 
    41  000A                     	;# 
    42  000B                     	;# 
    43  000C                     	;# 
    44  000D                     	;# 
    45  000E                     	;# 
    46  0011                     	;# 
    47  0012                     	;# 
    48  0013                     	;# 
    49  0015                     	;# 
    50  0016                     	;# 
    51  0016                     	;# 
    52  0017                     	;# 
    53  0018                     	;# 
    54  0019                     	;# 
    55  001A                     	;# 
    56  001B                     	;# 
    57  001C                     	;# 
    58  008C                     	;# 
    59  008D                     	;# 
    60  008E                     	;# 
    61  0091                     	;# 
    62  0092                     	;# 
    63  0093                     	;# 
    64  0095                     	;# 
    65  0096                     	;# 
    66  0097                     	;# 
    67  0098                     	;# 
    68  0099                     	;# 
    69  009A                     	;# 
    70  009B                     	;# 
    71  009B                     	;# 
    72  009C                     	;# 
    73  009D                     	;# 
    74  009E                     	;# 
    75  009F                     	;# 
    76  010C                     	;# 
    77  010D                     	;# 
    78  010E                     	;# 
    79  0111                     	;# 
    80  0112                     	;# 
    81  0113                     	;# 
    82  0114                     	;# 
    83  0115                     	;# 
    84  0116                     	;# 
    85  0117                     	;# 
    86  0118                     	;# 
    87  0119                     	;# 
    88  011C                     	;# 
    89  018C                     	;# 
    90  018D                     	;# 
    91  018E                     	;# 
    92  0191                     	;# 
    93  0191                     	;# 
    94  0192                     	;# 
    95  0193                     	;# 
    96  0193                     	;# 
    97  0194                     	;# 
    98  0195                     	;# 
    99  0196                     	;# 
   100  0197                     	;# 
   101  0199                     	;# 
   102  0199                     	;# 
   103  0199                     	;# 
   104  019A                     	;# 
   105  019A                     	;# 
   106  019A                     	;# 
   107  019B                     	;# 
   108  019B                     	;# 
   109  019B                     	;# 
   110  019B                     	;# 
   111  019B                     	;# 
   112  019C                     	;# 
   113  019C                     	;# 
   114  019C                     	;# 
   115  019D                     	;# 
   116  019D                     	;# 
   117  019D                     	;# 
   118  019E                     	;# 
   119  019E                     	;# 
   120  019E                     	;# 
   121  019F                     	;# 
   122  019F                     	;# 
   123  019F                     	;# 
   124  019F                     	;# 
   125  019F                     	;# 
   126  020C                     	;# 
   127  020D                     	;# 
   128  020E                     	;# 
   129  0211                     	;# 
   130  0211                     	;# 
   131  0212                     	;# 
   132  0212                     	;# 
   133  0213                     	;# 
   134  0213                     	;# 
   135  0214                     	;# 
   136  0214                     	;# 
   137  0215                     	;# 
   138  0215                     	;# 
   139  0215                     	;# 
   140  0215                     	;# 
   141  0216                     	;# 
   142  0216                     	;# 
   143  0217                     	;# 
   144  0217                     	;# 
   145  028C                     	;# 
   146  028D                     	;# 
   147  028E                     	;# 
   148  0291                     	;# 
   149  0291                     	;# 
   150  0292                     	;# 
   151  0293                     	;# 
   152  0293                     	;# 
   153  0298                     	;# 
   154  0298                     	;# 
   155  0299                     	;# 
   156  029A                     	;# 
   157  029A                     	;# 
   158  029E                     	;# 
   159  030C                     	;# 
   160  030D                     	;# 
   161  030E                     	;# 
   162  038C                     	;# 
   163  038D                     	;# 
   164  038E                     	;# 
   165  0391                     	;# 
   166  0392                     	;# 
   167  0393                     	;# 
   168  0394                     	;# 
   169  0395                     	;# 
   170  0396                     	;# 
   171  0397                     	;# 
   172  0398                     	;# 
   173  0399                     	;# 
   174  0415                     	;# 
   175  0416                     	;# 
   176  0417                     	;# 
   177  041C                     	;# 
   178  041D                     	;# 
   179  041E                     	;# 
   180  0511                     	;# 
   181  0515                     	;# 
   182  0617                     	;# 
   183  0618                     	;# 
   184  0619                     	;# 
   185  0619                     	;# 
   186  061A                     	;# 
   187  061B                     	;# 
   188  061C                     	;# 
   189  061C                     	;# 
   190  0691                     	;# 
   191  0692                     	;# 
   192  0693                     	;# 
   193  0694                     	;# 
   194  0695                     	;# 
   195  0696                     	;# 
   196  0697                     	;# 
   197  0698                     	;# 
   198  0699                     	;# 
   199  069A                     	;# 
   200  069B                     	;# 
   201  069C                     	;# 
   202  069D                     	;# 
   203  069E                     	;# 
   204  069F                     	;# 
   205  0E0F                     	;# 
   206  0E10                     	;# 
   207  0E11                     	;# 
   208  0E12                     	;# 
   209  0E13                     	;# 
   210  0E14                     	;# 
   211  0E15                     	;# 
   212  0E17                     	;# 
   213  0E20                     	;# 
   214  0E21                     	;# 
   215  0E22                     	;# 
   216  0E24                     	;# 
   217  0E25                     	;# 
   218  0E28                     	;# 
   219  0E29                     	;# 
   220  0E2A                     	;# 
   221  0E2B                     	;# 
   222  0E90                     	;# 
   223  0E91                     	;# 
   224  0E92                     	;# 
   225  0E94                     	;# 
   226  0E95                     	;# 
   227  0E9C                     	;# 
   228  0E9D                     	;# 
   229  0E9E                     	;# 
   230  0E9F                     	;# 
   231  0EA0                     	;# 
   232  0EA1                     	;# 
   233  0EA2                     	;# 
   234  0EA3                     	;# 
   235  0EA4                     	;# 
   236  0EA5                     	;# 
   237  0EA6                     	;# 
   238  0EA7                     	;# 
   239  0F0F                     	;# 
   240  0F10                     	;# 
   241  0F11                     	;# 
   242  0F12                     	;# 
   243  0F13                     	;# 
   244  0F14                     	;# 
   245  0F15                     	;# 
   246  0F16                     	;# 
   247  0F17                     	;# 
   248  0F18                     	;# 
   249  0F19                     	;# 
   250  0F1A                     	;# 
   251  0F1B                     	;# 
   252  0F1C                     	;# 
   253  0F1D                     	;# 
   254  0F1E                     	;# 
   255  0F1F                     	;# 
   256  0F20                     	;# 
   257  0F21                     	;# 
   258  0F22                     	;# 
   259  0F23                     	;# 
   260  0F24                     	;# 
   261  0F25                     	;# 
   262  0F26                     	;# 
   263  0F27                     	;# 
   264  0F28                     	;# 
   265  0F29                     	;# 
   266  0F2A                     	;# 
   267  0F2B                     	;# 
   268  0F2C                     	;# 
   269  0F2D                     	;# 
   270  0F9E                     	;# 
   271  0FE4                     	;# 
   272  0FE5                     	;# 
   273  0FE6                     	;# 
   274  0FE7                     	;# 
   275  0FE8                     	;# 
   276  0FE9                     	;# 
   277  0FEA                     	;# 
   278  0FEB                     	;# 
   279  0FED                     	;# 
   280  0FEE                     	;# 
   281  0FEF                     	;# 
   282  0000                     	;# 
   283  0001                     	;# 
   284  0002                     	;# 
   285  0003                     	;# 
   286  0004                     	;# 
   287  0005                     	;# 
   288  0006                     	;# 
   289  0007                     	;# 
   290  0008                     	;# 
   291  0009                     	;# 
   292  000A                     	;# 
   293  000B                     	;# 
   294  000C                     	;# 
   295  000D                     	;# 
   296  000E                     	;# 
   297  0011                     	;# 
   298  0012                     	;# 
   299  0013                     	;# 
   300  0015                     	;# 
   301  0016                     	;# 
   302  0016                     	;# 
   303  0017                     	;# 
   304  0018                     	;# 
   305  0019                     	;# 
   306  001A                     	;# 
   307  001B                     	;# 
   308  001C                     	;# 
   309  008C                     	;# 
   310  008D                     	;# 
   311  008E                     	;# 
   312  0091                     	;# 
   313  0092                     	;# 
   314  0093                     	;# 
   315  0095                     	;# 
   316  0096                     	;# 
   317  0097                     	;# 
   318  0098                     	;# 
   319  0099                     	;# 
   320  009A                     	;# 
   321  009B                     	;# 
   322  009B                     	;# 
   323  009C                     	;# 
   324  009D                     	;# 
   325  009E                     	;# 
   326  009F                     	;# 
   327  010C                     	;# 
   328  010D                     	;# 
   329  010E                     	;# 
   330  0111                     	;# 
   331  0112                     	;# 
   332  0113                     	;# 
   333  0114                     	;# 
   334  0115                     	;# 
   335  0116                     	;# 
   336  0117                     	;# 
   337  0118                     	;# 
   338  0119                     	;# 
   339  011C                     	;# 
   340  018C                     	;# 
   341  018D                     	;# 
   342  018E                     	;# 
   343  0191                     	;# 
   344  0191                     	;# 
   345  0192                     	;# 
   346  0193                     	;# 
   347  0193                     	;# 
   348  0194                     	;# 
   349  0195                     	;# 
   350  0196                     	;# 
   351  0197                     	;# 
   352  0199                     	;# 
   353  0199                     	;# 
   354  0199                     	;# 
   355  019A                     	;# 
   356  019A                     	;# 
   357  019A                     	;# 
   358  019B                     	;# 
   359  019B                     	;# 
   360  019B                     	;# 
   361  019B                     	;# 
   362  019B                     	;# 
   363  019C                     	;# 
   364  019C                     	;# 
   365  019C                     	;# 
   366  019D                     	;# 
   367  019D                     	;# 
   368  019D                     	;# 
   369  019E                     	;# 
   370  019E                     	;# 
   371  019E                     	;# 
   372  019F                     	;# 
   373  019F                     	;# 
   374  019F                     	;# 
   375  019F                     	;# 
   376  019F                     	;# 
   377  020C                     	;# 
   378  020D                     	;# 
   379  020E                     	;# 
   380  0211                     	;# 
   381  0211                     	;# 
   382  0212                     	;# 
   383  0212                     	;# 
   384  0213                     	;# 
   385  0213                     	;# 
   386  0214                     	;# 
   387  0214                     	;# 
   388  0215                     	;# 
   389  0215                     	;# 
   390  0215                     	;# 
   391  0215                     	;# 
   392  0216                     	;# 
   393  0216                     	;# 
   394  0217                     	;# 
   395  0217                     	;# 
   396  028C                     	;# 
   397  028D                     	;# 
   398  028E                     	;# 
   399  0291                     	;# 
   400  0291                     	;# 
   401  0292                     	;# 
   402  0293                     	;# 
   403  0293                     	;# 
   404  0298                     	;# 
   405  0298                     	;# 
   406  0299                     	;# 
   407  029A                     	;# 
   408  029A                     	;# 
   409  029E                     	;# 
   410  030C                     	;# 
   411  030D                     	;# 
   412  030E                     	;# 
   413  038C                     	;# 
   414  038D                     	;# 
   415  038E                     	;# 
   416  0391                     	;# 
   417  0392                     	;# 
   418  0393                     	;# 
   419  0394                     	;# 
   420  0395                     	;# 
   421  0396                     	;# 
   422  0397                     	;# 
   423  0398                     	;# 
   424  0399                     	;# 
   425  0415                     	;# 
   426  0416                     	;# 
   427  0417                     	;# 
   428  041C                     	;# 
   429  041D                     	;# 
   430  041E                     	;# 
   431  0511                     	;# 
   432  0515                     	;# 
   433  0617                     	;# 
   434  0618                     	;# 
   435  0619                     	;# 
   436  0619                     	;# 
   437  061A                     	;# 
   438  061B                     	;# 
   439  061C                     	;# 
   440  061C                     	;# 
   441  0691                     	;# 
   442  0692                     	;# 
   443  0693                     	;# 
   444  0694                     	;# 
   445  0695                     	;# 
   446  0696                     	;# 
   447  0697                     	;# 
   448  0698                     	;# 
   449  0699                     	;# 
   450  069A                     	;# 
   451  069B                     	;# 
   452  069C                     	;# 
   453  069D                     	;# 
   454  069E                     	;# 
   455  069F                     	;# 
   456  0E0F                     	;# 
   457  0E10                     	;# 
   458  0E11                     	;# 
   459  0E12                     	;# 
   460  0E13                     	;# 
   461  0E14                     	;# 
   462  0E15                     	;# 
   463  0E17                     	;# 
   464  0E20                     	;# 
   465  0E21                     	;# 
   466  0E22                     	;# 
   467  0E24                     	;# 
   468  0E25                     	;# 
   469  0E28                     	;# 
   470  0E29                     	;# 
   471  0E2A                     	;# 
   472  0E2B                     	;# 
   473  0E90                     	;# 
   474  0E91                     	;# 
   475  0E92                     	;# 
   476  0E94                     	;# 
   477  0E95                     	;# 
   478  0E9C                     	;# 
   479  0E9D                     	;# 
   480  0E9E                     	;# 
   481  0E9F                     	;# 
   482  0EA0                     	;# 
   483  0EA1                     	;# 
   484  0EA2                     	;# 
   485  0EA3                     	;# 
   486  0EA4                     	;# 
   487  0EA5                     	;# 
   488  0EA6                     	;# 
   489  0EA7                     	;# 
   490  0F0F                     	;# 
   491  0F10                     	;# 
   492  0F11                     	;# 
   493  0F12                     	;# 
   494  0F13                     	;# 
   495  0F14                     	;# 
   496  0F15                     	;# 
   497  0F16                     	;# 
   498  0F17                     	;# 
   499  0F18                     	;# 
   500  0F19                     	;# 
   501  0F1A                     	;# 
   502  0F1B                     	;# 
   503  0F1C                     	;# 
   504  0F1D                     	;# 
   505  0F1E                     	;# 
   506  0F1F                     	;# 
   507  0F20                     	;# 
   508  0F21                     	;# 
   509  0F22                     	;# 
   510  0F23                     	;# 
   511  0F24                     	;# 
   512  0F25                     	;# 
   513  0F26                     	;# 
   514  0F27                     	;# 
   515  0F28                     	;# 
   516  0F29                     	;# 
   517  0F2A                     	;# 
   518  0F2B                     	;# 
   519  0F2C                     	;# 
   520  0F2D                     	;# 
   521  0F9E                     	;# 
   522  0FE4                     	;# 
   523  0FE5                     	;# 
   524  0FE6                     	;# 
   525  0FE7                     	;# 
   526  0FE8                     	;# 
   527  0FE9                     	;# 
   528  0FEA                     	;# 
   529  0FEB                     	;# 
   530  0FED                     	;# 
   531  0FEE                     	;# 
   532  0FEF                     	;# 
   533  0000                     	;# 
   534  0001                     	;# 
   535  0002                     	;# 
   536  0003                     	;# 
   537  0004                     	;# 
   538  0005                     	;# 
   539  0006                     	;# 
   540  0007                     	;# 
   541  0008                     	;# 
   542  0009                     	;# 
   543  000A                     	;# 
   544  000B                     	;# 
   545  000C                     	;# 
   546  000D                     	;# 
   547  000E                     	;# 
   548  0011                     	;# 
   549  0012                     	;# 
   550  0013                     	;# 
   551  0015                     	;# 
   552  0016                     	;# 
   553  0016                     	;# 
   554  0017                     	;# 
   555  0018                     	;# 
   556  0019                     	;# 
   557  001A                     	;# 
   558  001B                     	;# 
   559  001C                     	;# 
   560  008C                     	;# 
   561  008D                     	;# 
   562  008E                     	;# 
   563  0091                     	;# 
   564  0092                     	;# 
   565  0093                     	;# 
   566  0095                     	;# 
   567  0096                     	;# 
   568  0097                     	;# 
   569  0098                     	;# 
   570  0099                     	;# 
   571  009A                     	;# 
   572  009B                     	;# 
   573  009B                     	;# 
   574  009C                     	;# 
   575  009D                     	;# 
   576  009E                     	;# 
   577  009F                     	;# 
   578  010C                     	;# 
   579  010D                     	;# 
   580  010E                     	;# 
   581  0111                     	;# 
   582  0112                     	;# 
   583  0113                     	;# 
   584  0114                     	;# 
   585  0115                     	;# 
   586  0116                     	;# 
   587  0117                     	;# 
   588  0118                     	;# 
   589  0119                     	;# 
   590  011C                     	;# 
   591  018C                     	;# 
   592  018D                     	;# 
   593  018E                     	;# 
   594  0191                     	;# 
   595  0191                     	;# 
   596  0192                     	;# 
   597  0193                     	;# 
   598  0193                     	;# 
   599  0194                     	;# 
   600  0195                     	;# 
   601  0196                     	;# 
   602  0197                     	;# 
   603  0199                     	;# 
   604  0199                     	;# 
   605  0199                     	;# 
   606  019A                     	;# 
   607  019A                     	;# 
   608  019A                     	;# 
   609  019B                     	;# 
   610  019B                     	;# 
   611  019B                     	;# 
   612  019B                     	;# 
   613  019B                     	;# 
   614  019C                     	;# 
   615  019C                     	;# 
   616  019C                     	;# 
   617  019D                     	;# 
   618  019D                     	;# 
   619  019D                     	;# 
   620  019E                     	;# 
   621  019E                     	;# 
   622  019E                     	;# 
   623  019F                     	;# 
   624  019F                     	;# 
   625  019F                     	;# 
   626  019F                     	;# 
   627  019F                     	;# 
   628  020C                     	;# 
   629  020D                     	;# 
   630  020E                     	;# 
   631  0211                     	;# 
   632  0211                     	;# 
   633  0212                     	;# 
   634  0212                     	;# 
   635  0213                     	;# 
   636  0213                     	;# 
   637  0214                     	;# 
   638  0214                     	;# 
   639  0215                     	;# 
   640  0215                     	;# 
   641  0215                     	;# 
   642  0215                     	;# 
   643  0216                     	;# 
   644  0216                     	;# 
   645  0217                     	;# 
   646  0217                     	;# 
   647  028C                     	;# 
   648  028D                     	;# 
   649  028E                     	;# 
   650  0291                     	;# 
   651  0291                     	;# 
   652  0292                     	;# 
   653  0293                     	;# 
   654  0293                     	;# 
   655  0298                     	;# 
   656  0298                     	;# 
   657  0299                     	;# 
   658  029A                     	;# 
   659  029A                     	;# 
   660  029E                     	;# 
   661  030C                     	;# 
   662  030D                     	;# 
   663  030E                     	;# 
   664  038C                     	;# 
   665  038D                     	;# 
   666  038E                     	;# 
   667  0391                     	;# 
   668  0392                     	;# 
   669  0393                     	;# 
   670  0394                     	;# 
   671  0395                     	;# 
   672  0396                     	;# 
   673  0397                     	;# 
   674  0398                     	;# 
   675  0399                     	;# 
   676  0415                     	;# 
   677  0416                     	;# 
   678  0417                     	;# 
   679  041C                     	;# 
   680  041D                     	;# 
   681  041E                     	;# 
   682  0511                     	;# 
   683  0515                     	;# 
   684  0617                     	;# 
   685  0618                     	;# 
   686  0619                     	;# 
   687  0619                     	;# 
   688  061A                     	;# 
   689  061B                     	;# 
   690  061C                     	;# 
   691  061C                     	;# 
   692  0691                     	;# 
   693  0692                     	;# 
   694  0693                     	;# 
   695  0694                     	;# 
   696  0695                     	;# 
   697  0696                     	;# 
   698  0697                     	;# 
   699  0698                     	;# 
   700  0699                     	;# 
   701  069A                     	;# 
   702  069B                     	;# 
   703  069C                     	;# 
   704  069D                     	;# 
   705  069E                     	;# 
   706  069F                     	;# 
   707  0E0F                     	;# 
   708  0E10                     	;# 
   709  0E11                     	;# 
   710  0E12                     	;# 
   711  0E13                     	;# 
   712  0E14                     	;# 
   713  0E15                     	;# 
   714  0E17                     	;# 
   715  0E20                     	;# 
   716  0E21                     	;# 
   717  0E22                     	;# 
   718  0E24                     	;# 
   719  0E25                     	;# 
   720  0E28                     	;# 
   721  0E29                     	;# 
   722  0E2A                     	;# 
   723  0E2B                     	;# 
   724  0E90                     	;# 
   725  0E91                     	;# 
   726  0E92                     	;# 
   727  0E94                     	;# 
   728  0E95                     	;# 
   729  0E9C                     	;# 
   730  0E9D                     	;# 
   731  0E9E                     	;# 
   732  0E9F                     	;# 
   733  0EA0                     	;# 
   734  0EA1                     	;# 
   735  0EA2                     	;# 
   736  0EA3                     	;# 
   737  0EA4                     	;# 
   738  0EA5                     	;# 
   739  0EA6                     	;# 
   740  0EA7                     	;# 
   741  0F0F                     	;# 
   742  0F10                     	;# 
   743  0F11                     	;# 
   744  0F12                     	;# 
   745  0F13                     	;# 
   746  0F14                     	;# 
   747  0F15                     	;# 
   748  0F16                     	;# 
   749  0F17                     	;# 
   750  0F18                     	;# 
   751  0F19                     	;# 
   752  0F1A                     	;# 
   753  0F1B                     	;# 
   754  0F1C                     	;# 
   755  0F1D                     	;# 
   756  0F1E                     	;# 
   757  0F1F                     	;# 
   758  0F20                     	;# 
   759  0F21                     	;# 
   760  0F22                     	;# 
   761  0F23                     	;# 
   762  0F24                     	;# 
   763  0F25                     	;# 
   764  0F26                     	;# 
   765  0F27                     	;# 
   766  0F28                     	;# 
   767  0F29                     	;# 
   768  0F2A                     	;# 
   769  0F2B                     	;# 
   770  0F2C                     	;# 
   771  0F2D                     	;# 
   772  0F9E                     	;# 
   773  0FE4                     	;# 
   774  0FE5                     	;# 
   775  0FE6                     	;# 
   776  0FE7                     	;# 
   777  0FE8                     	;# 
   778  0FE9                     	;# 
   779  0FEA                     	;# 
   780  0FEB                     	;# 
   781  0FED                     	;# 
   782  0FEE                     	;# 
   783  0FEF                     	;# 
   784  0000                     	;# 
   785  0001                     	;# 
   786  0002                     	;# 
   787  0003                     	;# 
   788  0004                     	;# 
   789  0005                     	;# 
   790  0006                     	;# 
   791  0007                     	;# 
   792  0008                     	;# 
   793  0009                     	;# 
   794  000A                     	;# 
   795  000B                     	;# 
   796  000C                     	;# 
   797  000D                     	;# 
   798  000E                     	;# 
   799  0011                     	;# 
   800  0012                     	;# 
   801  0013                     	;# 
   802  0015                     	;# 
   803  0016                     	;# 
   804  0016                     	;# 
   805  0017                     	;# 
   806  0018                     	;# 
   807  0019                     	;# 
   808  001A                     	;# 
   809  001B                     	;# 
   810  001C                     	;# 
   811  008C                     	;# 
   812  008D                     	;# 
   813  008E                     	;# 
   814  0091                     	;# 
   815  0092                     	;# 
   816  0093                     	;# 
   817  0095                     	;# 
   818  0096                     	;# 
   819  0097                     	;# 
   820  0098                     	;# 
   821  0099                     	;# 
   822  009A                     	;# 
   823  009B                     	;# 
   824  009B                     	;# 
   825  009C                     	;# 
   826  009D                     	;# 
   827  009E                     	;# 
   828  009F                     	;# 
   829  010C                     	;# 
   830  010D                     	;# 
   831  010E                     	;# 
   832  0111                     	;# 
   833  0112                     	;# 
   834  0113                     	;# 
   835  0114                     	;# 
   836  0115                     	;# 
   837  0116                     	;# 
   838  0117                     	;# 
   839  0118                     	;# 
   840  0119                     	;# 
   841  011C                     	;# 
   842  018C                     	;# 
   843  018D                     	;# 
   844  018E                     	;# 
   845  0191                     	;# 
   846  0191                     	;# 
   847  0192                     	;# 
   848  0193                     	;# 
   849  0193                     	;# 
   850  0194                     	;# 
   851  0195                     	;# 
   852  0196                     	;# 
   853  0197                     	;# 
   854  0199                     	;# 
   855  0199                     	;# 
   856  0199                     	;# 
   857  019A                     	;# 
   858  019A                     	;# 
   859  019A                     	;# 
   860  019B                     	;# 
   861  019B                     	;# 
   862  019B                     	;# 
   863  019B                     	;# 
   864  019B                     	;# 
   865  019C                     	;# 
   866  019C                     	;# 
   867  019C                     	;# 
   868  019D                     	;# 
   869  019D                     	;# 
   870  019D                     	;# 
   871  019E                     	;# 
   872  019E                     	;# 
   873  019E                     	;# 
   874  019F                     	;# 
   875  019F                     	;# 
   876  019F                     	;# 
   877  019F                     	;# 
   878  019F                     	;# 
   879  020C                     	;# 
   880  020D                     	;# 
   881  020E                     	;# 
   882  0211                     	;# 
   883  0211                     	;# 
   884  0212                     	;# 
   885  0212                     	;# 
   886  0213                     	;# 
   887  0213                     	;# 
   888  0214                     	;# 
   889  0214                     	;# 
   890  0215                     	;# 
   891  0215                     	;# 
   892  0215                     	;# 
   893  0215                     	;# 
   894  0216                     	;# 
   895  0216                     	;# 
   896  0217                     	;# 
   897  0217                     	;# 
   898  028C                     	;# 
   899  028D                     	;# 
   900  028E                     	;# 
   901  0291                     	;# 
   902  0291                     	;# 
   903  0292                     	;# 
   904  0293                     	;# 
   905  0293                     	;# 
   906  0298                     	;# 
   907  0298                     	;# 
   908  0299                     	;# 
   909  029A                     	;# 
   910  029A                     	;# 
   911  029E                     	;# 
   912  030C                     	;# 
   913  030D                     	;# 
   914  030E                     	;# 
   915  038C                     	;# 
   916  038D                     	;# 
   917  038E                     	;# 
   918  0391                     	;# 
   919  0392                     	;# 
   920  0393                     	;# 
   921  0394                     	;# 
   922  0395                     	;# 
   923  0396                     	;# 
   924  0397                     	;# 
   925  0398                     	;# 
   926  0399                     	;# 
   927  0415                     	;# 
   928  0416                     	;# 
   929  0417                     	;# 
   930  041C                     	;# 
   931  041D                     	;# 
   932  041E                     	;# 
   933  0511                     	;# 
   934  0515                     	;# 
   935  0617                     	;# 
   936  0618                     	;# 
   937  0619                     	;# 
   938  0619                     	;# 
   939  061A                     	;# 
   940  061B                     	;# 
   941  061C                     	;# 
   942  061C                     	;# 
   943  0691                     	;# 
   944  0692                     	;# 
   945  0693                     	;# 
   946  0694                     	;# 
   947  0695                     	;# 
   948  0696                     	;# 
   949  0697                     	;# 
   950  0698                     	;# 
   951  0699                     	;# 
   952  069A                     	;# 
   953  069B                     	;# 
   954  069C                     	;# 
   955  069D                     	;# 
   956  069E                     	;# 
   957  069F                     	;# 
   958  0E0F                     	;# 
   959  0E10                     	;# 
   960  0E11                     	;# 
   961  0E12                     	;# 
   962  0E13                     	;# 
   963  0E14                     	;# 
   964  0E15                     	;# 
   965  0E17                     	;# 
   966  0E20                     	;# 
   967  0E21                     	;# 
   968  0E22                     	;# 
   969  0E24                     	;# 
   970  0E25                     	;# 
   971  0E28                     	;# 
   972  0E29                     	;# 
   973  0E2A                     	;# 
   974  0E2B                     	;# 
   975  0E90                     	;# 
   976  0E91                     	;# 
   977  0E92                     	;# 
   978  0E94                     	;# 
   979  0E95                     	;# 
   980  0E9C                     	;# 
   981  0E9D                     	;# 
   982  0E9E                     	;# 
   983  0E9F                     	;# 
   984  0EA0                     	;# 
   985  0EA1                     	;# 
   986  0EA2                     	;# 
   987  0EA3                     	;# 
   988  0EA4                     	;# 
   989  0EA5                     	;# 
   990  0EA6                     	;# 
   991  0EA7                     	;# 
   992  0F0F                     	;# 
   993  0F10                     	;# 
   994  0F11                     	;# 
   995  0F12                     	;# 
   996  0F13                     	;# 
   997  0F14                     	;# 
   998  0F15                     	;# 
   999  0F16                     	;# 
  1000  0F17                     	;# 
  1001  0F18                     	;# 
  1002  0F19                     	;# 
  1003  0F1A                     	;# 
  1004  0F1B                     	;# 
  1005  0F1C                     	;# 
  1006  0F1D                     	;# 
  1007  0F1E                     	;# 
  1008  0F1F                     	;# 
  1009  0F20                     	;# 
  1010  0F21                     	;# 
  1011  0F22                     	;# 
  1012  0F23                     	;# 
  1013  0F24                     	;# 
  1014  0F25                     	;# 
  1015  0F26                     	;# 
  1016  0F27                     	;# 
  1017  0F28                     	;# 
  1018  0F29                     	;# 
  1019  0F2A                     	;# 
  1020  0F2B                     	;# 
  1021  0F2C                     	;# 
  1022  0F2D                     	;# 
  1023  0F9E                     	;# 
  1024  0FE4                     	;# 
  1025  0FE5                     	;# 
  1026  0FE6                     	;# 
  1027  0FE7                     	;# 
  1028  0FE8                     	;# 
  1029  0FE9                     	;# 
  1030  0FEA                     	;# 
  1031  0FEB                     	;# 
  1032  0FED                     	;# 
  1033  0FEE                     	;# 
  1034  0FEF                     	;# 
  1035                           
  1036                           	psect	idataCOMMON
  1037  0705                     __pidataCOMMON:	
  1038                           
  1039                           ;initializer for disChar@pos
  1040  0705  3407               	retlw	7
  1041  0706  3400               	retlw	0
  1042  000B                     _INTCONbits	set	11
  1043  0011                     _PIR1bits	set	17
  1044  0015                     _TMR0	set	21
  1045  005A                     _TMR0IF	set	90
  1046  009D                     _ADCON0bits	set	157
  1047  009E                     _ADCON1bits	set	158
  1048  009C                     _ADRESH	set	156
  1049  009B                     _ADRESL	set	155
  1050  0095                     _OPTION_REGbits	set	149
  1051  0099                     _OSCCONbits	set	153
  1052  0091                     _PIE1bits	set	145
  1053  008C                     _TRISA	set	140
  1054  008D                     _TRISBbits	set	141
  1055  010D                     _LATBbits	set	269
  1056  018C                     _ANSELA	set	396
  1057  018D                     _ANSELB	set	397
  1058  0212                     _SSP1ADD	set	530
  1059  0216                     _SSP1CON2	set	534
  1060  0216                     _SSP1CON2bits	set	534
  1061  0215                     _SSP1CONbits	set	533
  1062  0214                     _SSP1STAT	set	532
  1063  0211                     _SSPBUF	set	529
  1064  0216                     _SSPCON2bits	set	534
  1065  020D                     _WPUBbits	set	525
  1066  10B2                     _PEN	set	4274
  1067  10B3                     _RCEN	set	4275
  1068  0515                     _OPA2CONbits	set	1301
  1069  0E9C                     _RB4PPS	set	3740
  1070  0E9E                     _RB6PPS	set	3742
  1071                           
  1072                           	psect	stringtext
  1073  0700                     __pstringtext:	
  1074  0700                     __stringdata:	
  1075  0700                     STR_1:	
  1076  0700  344C               	retlw	76	;'L'
  1077  0701  3455               	retlw	85	;'U'
  1078  0702  3458               	retlw	88	;'X'
  1079  0703  344D               	retlw	77	;'M'
  1080  0704  3400               	retlw	0
  1081  0705                     __end_of__stringdata:	
  1082                           
  1083                           ; #config settings
  1084  0000                     
  1085                           	psect	cinit
  1086  0034                     start_initialization:	
  1087  0034                     __initialization:	
  1088                           
  1089                           ; Clear objects allocated to BANK0
  1090  0034  305C               	movlw	low __pbssBANK0
  1091  0035  0084               	movwf	4
  1092  0036  3000               	movlw	high __pbssBANK0
  1093  0037  0085               	movwf	5
  1094  0038  300F               	movlw	15
  1095  0039  3186  267F  3180   	fcall	clear_ram0
  1096                           
  1097                           ; Clear objects allocated to BANK1
  1098  003C  30A0               	movlw	low __pbssBANK1
  1099  003D  0084               	movwf	4
  1100  003E  3000               	movlw	high __pbssBANK1
  1101  003F  0085               	movwf	5
  1102  0040  3017               	movlw	23
  1103  0041  3186  267F  3180   	fcall	clear_ram0
  1104                           
  1105                           ; Initialize objects allocated to COMMON
  1106  0044  3187  2705  3180   	fcall	__pidataCOMMON	;fetch initializer
  1107  0047  00FA               	movwf	__pdataCOMMON& (0+127)
  1108  0048  3187  2706         	fcall	__pidataCOMMON+1	;fetch initializer
  1109  004A  00FB               	movwf	(__pdataCOMMON+1)& (0+127)
  1110  004B                     end_of_initialization:	
  1111                           ;End of C runtime variable initialization code
  1112                           
  1113  004B                     __end_of__initialization:	
  1114  004B  107E               	bcf	pic14e$flags,0	;clear compiler interrupt flag
  1115  004C  0020               	movlb	0
  1116  004D  3180  284F         	ljmp	_main	;jump to C main() function
  1117                           
  1118                           	psect	dataCOMMON
  1119  007A                     __pdataCOMMON:	
  1120  007A                     disChar@pos:	
  1121  007A                     	ds	2
  1122                           
  1123                           	psect	bssBANK0
  1124  005C                     __pbssBANK0:	
  1125  005C                     _ad_res:	
  1126  005C                     	ds	4
  1127  0060                     _lux:	
  1128  0060                     	ds	4
  1129  0064                     _i:	
  1130  0064                     	ds	2
  1131  0066                     _res:	
  1132  0066                     	ds	2
  1133  0068                     isr@cnt:	
  1134  0068                     	ds	2
  1135  006A                     _bMedida:	
  1136  006A                     	ds	1
  1137                           
  1138                           	psect	bssBANK1
  1139  00A0                     __pbssBANK1:	
  1140  00A0                     _resul:	
  1141  00A0                     	ds	4
  1142  00A4                     _vr:	
  1143  00A4                     	ds	4
  1144  00A8                     _wlux:	
  1145  00A8                     	ds	4
  1146  00AC                     _fvr:	
  1147  00AC                     	ds	3
  1148  00AF                     _ip:	
  1149  00AF                     	ds	3
  1150  00B2                     _Resul:	
  1151  00B2                     	ds	5
  1152                           
  1153                           	psect	clrtext
  1154  067F                     clear_ram0:	
  1155                           ;	Called with FSR0 containing the base address, and
  1156                           ;	WREG with the size to clear
  1157                           
  1158  067F  0064               	clrwdt	;clear the watchdog before getting into this loop
  1159  0680                     clrloop0:	
  1160  0680  0180               	clrf	0	;clear RAM location pointed to by FSR
  1161  0681  3101               	addfsr 0,1
  1162  0682  0B89               	decfsz	9,f	;Have we reached the end of clearing yet?
  1163  0683  2E80               	goto	clrloop0	;have we reached the end yet?
  1164  0684  3400               	retlw	0	;all done for this memory range, return
  1165                           
  1166                           	psect	cstackBANK1
  1167  00B7                     __pcstackBANK1:	
  1168  00B7                     _main$1204:	
  1169                           
  1170                           ; 4 bytes @ 0x0
  1171  00B7                     	ds	4
  1172  00BB                     main@i:	
  1173                           
  1174                           ; 2 bytes @ 0x4
  1175  00BB                     	ds	2
  1176                           
  1177                           	psect	cstackCOMMON
  1178  0070                     __pcstackCOMMON:	
  1179  0070                     ?_initPD3535:	
  1180  0070                     ?_main:	
  1181                           ; 0 bytes @ 0x0
  1182                           
  1183  0070                     ?_isr:	
  1184                           ; 0 bytes @ 0x0
  1185                           
  1186  0070                     ??_isr:	
  1187                           ; 0 bytes @ 0x0
  1188                           
  1189  0070                     ?_disChar:	
  1190                           ; 0 bytes @ 0x0
  1191                           
  1192                           
  1193                           ; 0 bytes @ 0x0
  1194  0070                     	ds	2
  1195  0072                     ?_snd4094:	
  1196  0072                     ?___ftpack:	
  1197                           ; 0 bytes @ 0x2
  1198                           
  1199  0072                     ?___lmul:	
  1200                           ; 3 bytes @ 0x2
  1201                           
  1202  0072                     ?___lldiv:	
  1203                           ; 4 bytes @ 0x2
  1204                           
  1205  0072                     ?___llmod:	
  1206                           ; 4 bytes @ 0x2
  1207                           
  1208  0072                     snd4094@dato:	
  1209                           ; 4 bytes @ 0x2
  1210                           
  1211  0072                     ___ftpack@arg:	
  1212                           ; 2 bytes @ 0x2
  1213                           
  1214  0072                     ___lmul@multiplier:	
  1215                           ; 3 bytes @ 0x2
  1216                           
  1217  0072                     ___lldiv@divisor:	
  1218                           ; 4 bytes @ 0x2
  1219                           
  1220  0072                     ___llmod@divisor:	
  1221                           ; 4 bytes @ 0x2
  1222                           
  1223                           
  1224                           ; 4 bytes @ 0x2
  1225  0072                     	ds	2
  1226  0074                     ??_snd4094:	
  1227                           
  1228                           ; 0 bytes @ 0x4
  1229  0074                     	ds	1
  1230  0075                     snd4094@i:	
  1231  0075                     ___ftpack@exp:	
  1232                           ; 1 bytes @ 0x5
  1233                           
  1234                           
  1235                           ; 1 bytes @ 0x5
  1236  0075                     	ds	1
  1237  0076                     ??_initPD3535:	
  1238  0076                     ??_disChar:	
  1239                           ; 0 bytes @ 0x6
  1240                           
  1241  0076                     ___ftpack@sign:	
  1242                           ; 0 bytes @ 0x6
  1243                           
  1244  0076                     ___lmul@multiplicand:	
  1245                           ; 1 bytes @ 0x6
  1246                           
  1247  0076                     ___lldiv@dividend:	
  1248                           ; 4 bytes @ 0x6
  1249                           
  1250  0076                     ___llmod@dividend:	
  1251                           ; 4 bytes @ 0x6
  1252                           
  1253                           
  1254                           ; 4 bytes @ 0x6
  1255  0076                     	ds	1
  1256  0077                     ??___ftpack:	
  1257  0077                     initPD3535@modo:	
  1258                           ; 0 bytes @ 0x7
  1259                           
  1260  0077                     disChar@ch:	
  1261                           ; 1 bytes @ 0x7
  1262                           
  1263                           
  1264                           ; 1 bytes @ 0x7
  1265  0077                     	ds	1
  1266  0078                     initPD3535@dato:	
  1267  0078                     disChar@buff:	
  1268                           ; 2 bytes @ 0x8
  1269                           
  1270                           
  1271                           ; 2 bytes @ 0x8
  1272  0078                     	ds	2
  1273  007A                     ??___lmul:	
  1274                           
  1275                           	psect	cstackBANK0
  1276  0020                     __pcstackBANK0:	
  1277                           ; 0 bytes @ 0xA
  1278                           
  1279  0020                     ?_printVal:	
  1280  0020                     ??___lldiv:	
  1281                           ; 0 bytes @ 0x0
  1282                           
  1283  0020                     ??___llmod:	
  1284                           ; 0 bytes @ 0x0
  1285                           
  1286  0020                     ?___lltoft:	
  1287                           ; 0 bytes @ 0x0
  1288                           
  1289  0020                     printVal@str:	
  1290                           ; 3 bytes @ 0x0
  1291                           
  1292  0020                     ___lmul@product:	
  1293                           ; 2 bytes @ 0x0
  1294                           
  1295  0020                     ___lltoft@c:	
  1296                           ; 4 bytes @ 0x0
  1297                           
  1298                           
  1299                           ; 4 bytes @ 0x0
  1300  0020                     	ds	1
  1301  0021                     ___llmod@counter:	
  1302  0021                     ___lldiv@quotient:	
  1303                           ; 1 bytes @ 0x1
  1304                           
  1305                           
  1306                           ; 4 bytes @ 0x1
  1307  0021                     	ds	1
  1308  0022                     ??_printVal:	
  1309                           
  1310                           ; 0 bytes @ 0x2
  1311  0022                     	ds	1
  1312  0023                     printVal@i:	
  1313                           
  1314                           ; 2 bytes @ 0x3
  1315  0023                     	ds	1
  1316  0024                     ??___lltoft:	
  1317                           
  1318                           ; 0 bytes @ 0x4
  1319  0024                     	ds	1
  1320  0025                     ___lldiv@counter:	
  1321  0025                     ___lltoft@exp:	
  1322                           ; 1 bytes @ 0x5
  1323                           
  1324                           
  1325                           ; 1 bytes @ 0x5
  1326  0025                     	ds	1
  1327  0026                     ?_ultoa:	
  1328  0026                     ?___ftdiv:	
  1329                           ; 1 bytes @ 0x6
  1330                           
  1331  0026                     ___ftdiv@f2:	
  1332                           ; 3 bytes @ 0x6
  1333                           
  1334  0026                     ultoa@val:	
  1335                           ; 3 bytes @ 0x6
  1336                           
  1337                           
  1338                           ; 4 bytes @ 0x6
  1339  0026                     	ds	3
  1340  0029                     ___ftdiv@f1:	
  1341                           
  1342                           ; 3 bytes @ 0x9
  1343  0029                     	ds	1
  1344  002A                     ultoa@base:	
  1345                           
  1346                           ; 2 bytes @ 0xA
  1347  002A                     	ds	2
  1348  002C                     ??_ultoa:	
  1349  002C                     ??___ftdiv:	
  1350                           ; 0 bytes @ 0xC
  1351                           
  1352                           
  1353                           ; 0 bytes @ 0xC
  1354  002C                     	ds	1
  1355  002D                     ultoa@v:	
  1356                           
  1357                           ; 4 bytes @ 0xD
  1358  002D                     	ds	3
  1359  0030                     ___ftdiv@cntr:	
  1360                           
  1361                           ; 1 bytes @ 0x10
  1362  0030                     	ds	1
  1363  0031                     ultoa@c:	
  1364  0031                     ___ftdiv@f3:	
  1365                           ; 1 bytes @ 0x11
  1366                           
  1367                           
  1368                           ; 3 bytes @ 0x11
  1369  0031                     	ds	1
  1370  0032                     ultoa@buf:	
  1371                           
  1372                           ; 1 bytes @ 0x12
  1373  0032                     	ds	1
  1374  0033                     ?_ltoa:	
  1375  0033                     ltoa@val:	
  1376                           ; 1 bytes @ 0x13
  1377                           
  1378                           
  1379                           ; 4 bytes @ 0x13
  1380  0033                     	ds	1
  1381  0034                     ___ftdiv@exp:	
  1382                           
  1383                           ; 1 bytes @ 0x14
  1384  0034                     	ds	1
  1385  0035                     ___ftdiv@sign:	
  1386                           
  1387                           ; 1 bytes @ 0x15
  1388  0035                     	ds	1
  1389  0036                     ?___ftmul:	
  1390  0036                     ___ftmul@f1:	
  1391                           ; 3 bytes @ 0x16
  1392                           
  1393                           
  1394                           ; 3 bytes @ 0x16
  1395  0036                     	ds	1
  1396  0037                     ltoa@base:	
  1397                           
  1398                           ; 2 bytes @ 0x17
  1399  0037                     	ds	2
  1400  0039                     ??_ltoa:	
  1401  0039                     ___ftmul@f2:	
  1402                           ; 0 bytes @ 0x19
  1403                           
  1404                           
  1405                           ; 3 bytes @ 0x19
  1406  0039                     	ds	1
  1407  003A                     ltoa@cp:	
  1408                           
  1409                           ; 1 bytes @ 0x1A
  1410  003A                     	ds	1
  1411  003B                     ltoa@buf:	
  1412                           
  1413                           ; 1 bytes @ 0x1B
  1414  003B                     	ds	1
  1415  003C                     ??___ftmul:	
  1416                           
  1417                           ; 0 bytes @ 0x1C
  1418  003C                     	ds	4
  1419  0040                     ___ftmul@exp:	
  1420                           
  1421                           ; 1 bytes @ 0x20
  1422  0040                     	ds	1
  1423  0041                     ___ftmul@f3_as_product:	
  1424                           
  1425                           ; 3 bytes @ 0x21
  1426  0041                     	ds	3
  1427  0044                     ___ftmul@cntr:	
  1428                           
  1429                           ; 1 bytes @ 0x24
  1430  0044                     	ds	1
  1431  0045                     ___ftmul@sign:	
  1432                           
  1433                           ; 1 bytes @ 0x25
  1434  0045                     	ds	1
  1435  0046                     ?___fttol:	
  1436  0046                     ___fttol@f1:	
  1437                           ; 4 bytes @ 0x26
  1438                           
  1439                           
  1440                           ; 3 bytes @ 0x26
  1441  0046                     	ds	4
  1442  004A                     ??___fttol:	
  1443                           
  1444                           ; 0 bytes @ 0x2A
  1445  004A                     	ds	4
  1446  004E                     ___fttol@sign1:	
  1447                           
  1448                           ; 1 bytes @ 0x2E
  1449  004E                     	ds	1
  1450  004F                     ___fttol@lval:	
  1451                           
  1452                           ; 4 bytes @ 0x2F
  1453  004F                     	ds	4
  1454  0053                     ___fttol@exp1:	
  1455                           
  1456                           ; 1 bytes @ 0x33
  1457  0053                     	ds	1
  1458  0054                     ??_main:	
  1459                           
  1460                           ; 0 bytes @ 0x34
  1461  0054                     	ds	8
  1462                           
  1463                           	psect	maintext
  1464  004F                     __pmaintext:	
  1465 ;;
  1466 ;;Main: autosize = 0, tempsize = 8, incstack = 0, save=0
  1467 ;;
  1468 ;; *************** function _main *****************
  1469 ;; Defined at:
  1470 ;;		line 36 in file "main.c"
  1471 ;; Parameters:    Size  Location     Type
  1472 ;;		None
  1473 ;; Auto vars:     Size  Location     Type
  1474 ;;  i               2    4[BANK1 ] int 
  1475 ;;  temp            1    0        unsigned char 
  1476 ;; Return value:  Size  Location     Type
  1477 ;;		None               void
  1478 ;; Registers used:
  1479 ;;		wreg, fsr0l, fsr0h, fsr1l, fsr1h, status,2, status,0, pclath, cstack
  1480 ;; Tracked objects:
  1481 ;;		On entry : 17F/0
  1482 ;;		On exit  : 0/0
  1483 ;;		Unchanged: 0/0
  1484 ;; Data sizes:     COMMON   BANK0   BANK1   BANK2   BANK3   BANK4   BANK5   BANK6   BANK7   BANK8   BANK9  BANK10  BANK1
      +1  BANK12
  1485 ;;      Params:         0       0       0       0       0       0       0       0       0       0       0       0       
      +0       0
  1486 ;;      Locals:         0       0       6       0       0       0       0       0       0       0       0       0       
      +0       0
  1487 ;;      Temps:          0       8       0       0       0       0       0       0       0       0       0       0       
      +0       0
  1488 ;;      Totals:         0       8       6       0       0       0       0       0       0       0       0       0       
      +0       0
  1489 ;;Total ram usage:       14 bytes
  1490 ;; Hardware stack levels required when called:    4
  1491 ;; This function calls:
  1492 ;;		___ftdiv
  1493 ;;		___ftmul
  1494 ;;		___fttol
  1495 ;;		___lltoft
  1496 ;;		___lmul
  1497 ;;		_initPD3535
  1498 ;;		_ltoa
  1499 ;;		_printVal
  1500 ;; This function is called by:
  1501 ;;		Startup code after reset
  1502 ;; This function uses a non-reentrant model
  1503 ;;
  1504                           
  1505                           
  1506                           ;psect for function _main
  1507  004F                     _main:	
  1508                           
  1509                           ;main.c: 39: unsigned char temp;
  1510                           ;main.c: 40: int i;
  1511                           ;main.c: 43: OSCCONbits.SCS = 0b10;
  1512                           
  1513                           ;incstack = 0
  1514                           ; Regs used in _main: [wreg-fsr1h+status,2+status,0+pclath+cstack]
  1515  004F  0021               	movlb	1	; select bank1
  1516  0050  0819               	movf	25,w	;volatile
  1517  0051  39FC               	andlw	-4
  1518  0052  3802               	iorlw	2
  1519  0053  0099               	movwf	25	;volatile
  1520                           
  1521                           ;main.c: 44: OSCCONbits.IRCF = 0b1111;
  1522  0054  3078               	movlw	120
  1523  0055  0499               	iorwf	25,f	;volatile
  1524                           
  1525                           ;main.c: 47: TRISA = 0xFFFF;
  1526  0056  30FF               	movlw	255
  1527  0057  008C               	movwf	12	;volatile
  1528                           
  1529                           ;main.c: 48: ANSELB = 0x00;
  1530  0058  0023               	movlb	3	; select bank3
  1531  0059  018D               	clrf	13	;volatile
  1532                           
  1533                           ;main.c: 50: TRISBbits.TRISB7 = 0;
  1534  005A  0021               	movlb	1	; select bank1
  1535  005B  138D               	bcf	13,7	;volatile
  1536                           
  1537                           ;main.c: 51: LATBbits.LATB7 = 1;
  1538  005C  0022               	movlb	2	; select bank2
  1539  005D  178D               	bsf	13,7	;volatile
  1540                           
  1541                           ;main.c: 54: OPTION_REGbits.PSA = 0;
  1542  005E  0021               	movlb	1	; select bank1
  1543  005F  1195               	bcf	21,3	;volatile
  1544                           
  1545                           ;main.c: 55: OPTION_REGbits.PS = 0b111;
  1546  0060  3007               	movlw	7
  1547  0061  0495               	iorwf	21,f	;volatile
  1548                           
  1549                           ;main.c: 56: OPTION_REGbits.TMR0CS = 0;
  1550  0062  1295               	bcf	21,5	;volatile
  1551                           
  1552                           ;main.c: 57: INTCONbits.TMR0IE = 1;
  1553  0063  168B               	bsf	11,5	;volatile
  1554                           
  1555                           ;main.c: 58: INTCONbits.TMR0IF = 0;
  1556  0064  110B               	bcf	11,2	;volatile
  1557                           
  1558                           ;main.c: 59: TMR0 = 0;
  1559  0065  0020               	movlb	0	; select bank0
  1560  0066  0195               	clrf	21	;volatile
  1561                           
  1562                           ;main.c: 63: OPA2CONbits.OPA2EN = 1;
  1563  0067  002A               	movlb	10	; select bank10
  1564  0068  1795               	bsf	21,7	;volatile
  1565                           
  1566                           ;main.c: 66: ANSELA = 0b00000100;
  1567  0069  3004               	movlw	4
  1568  006A  0023               	movlb	3	; select bank3
  1569  006B  008C               	movwf	12	;volatile
  1570                           
  1571                           ;main.c: 67: TRISA = 0b00000100;
  1572  006C  3004               	movlw	4
  1573  006D  0021               	movlb	1	; select bank1
  1574  006E  008C               	movwf	12	;volatile
  1575                           
  1576                           ;main.c: 68: ADCON1bits.ADFM = 1;
  1577  006F  179E               	bsf	30,7	;volatile
  1578                           
  1579                           ;main.c: 69: ADCON0bits.CHS = 0b00010;
  1580  0070  081D               	movf	29,w	;volatile
  1581  0071  3983               	andlw	-125
  1582  0072  3808               	iorlw	8
  1583  0073  009D               	movwf	29	;volatile
  1584                           
  1585                           ;main.c: 70: ADCON1bits.ADPREF = 0;
  1586  0074  30FC               	movlw	-4
  1587  0075  059E               	andwf	30,f	;volatile
  1588                           
  1589                           ;main.c: 71: ADCON1bits.ADCS = 0b110;
  1590  0076  081E               	movf	30,w	;volatile
  1591  0077  398F               	andlw	-113
  1592  0078  3860               	iorlw	96
  1593  0079  009E               	movwf	30	;volatile
  1594                           
  1595                           ;main.c: 72: ADCON0bits.ADON = 1;
  1596  007A  141D               	bsf	29,0	;volatile
  1597                           
  1598                           ;main.c: 77: for (i = 0; i < 5; i++) {
  1599  007B  01BB               	clrf	main@i^(0+128)
  1600  007C  01BC               	clrf	(main@i+1)^(0+128)
  1601  007D  083C               	movf	(main@i+1)^(0+128),w
  1602  007E  3A80               	xorlw	128
  1603  007F  0020               	movlb	0	; select bank0
  1604  0080  00D4               	movwf	??_main
  1605  0081  3080               	movlw	128
  1606  0082  0254               	subwf	??_main,w
  1607  0083  1D03               	skipz
  1608  0084  2888               	goto	u2555
  1609  0085  3005               	movlw	5
  1610  0086  0021               	movlb	1	; select bank1
  1611  0087  023B               	subwf	main@i^(0+128),w
  1612  0088                     u2555:	
  1613  0088  1803               	btfsc	3,0
  1614  0089  28C0               	goto	l1940
  1615  008A                     l1934:	
  1616                           
  1617                           ;main.c: 78: initPD3535(0x40);
  1618  008A  3040               	movlw	64
  1619  008B  3186  266C  3180   	fcall	_initPD3535
  1620                           
  1621                           ;main.c: 79: _delay((unsigned long)((300)*(16000000/4000.0)));
  1622  008E  3007               	movlw	7
  1623  008F  0020               	movlb	0	; select bank0
  1624  0090  00D6               	movwf	??_main+2
  1625  0091  3017               	movlw	23
  1626  0092  00D5               	movwf	??_main+1
  1627  0093  306F               	movlw	111
  1628  0094  00D4               	movwf	??_main
  1629  0095                     u2647:	
  1630  0095  0BD4               	decfsz	??_main,f
  1631  0096  2895               	goto	u2647
  1632  0097  0BD5               	decfsz	??_main+1,f
  1633  0098  2895               	goto	u2647
  1634  0099  0BD6               	decfsz	??_main+2,f
  1635  009A  2895               	goto	u2647
  1636  009B  0000               	nop
  1637                           
  1638                           ;main.c: 80: initPD3535(0x00);
  1639  009C  3000               	movlw	0
  1640  009D  3186  266C  3180   	fcall	_initPD3535
  1641                           
  1642                           ;main.c: 81: _delay((unsigned long)((300)*(16000000/4000.0)));
  1643  00A0  3007               	movlw	7
  1644  00A1  0020               	movlb	0	; select bank0
  1645  00A2  00D6               	movwf	??_main+2
  1646  00A3  3017               	movlw	23
  1647  00A4  00D5               	movwf	??_main+1
  1648  00A5  306F               	movlw	111
  1649  00A6  00D4               	movwf	??_main
  1650  00A7                     u2657:	
  1651  00A7  0BD4               	decfsz	??_main,f
  1652  00A8  28A7               	goto	u2657
  1653  00A9  0BD5               	decfsz	??_main+1,f
  1654  00AA  28A7               	goto	u2657
  1655  00AB  0BD6               	decfsz	??_main+2,f
  1656  00AC  28A7               	goto	u2657
  1657  00AD  0000               	nop
  1658  00AE  3001               	movlw	1
  1659  00AF  0021               	movlb	1	; select bank1
  1660  00B0  07BB               	addwf	main@i^(0+128),f
  1661  00B1  3000               	movlw	0
  1662  00B2  3DBC               	addwfc	(main@i+1)^(0+128),f
  1663  00B3  083C               	movf	(main@i+1)^(0+128),w
  1664  00B4  3A80               	xorlw	128
  1665  00B5  0020               	movlb	0	; select bank0
  1666  00B6  00D4               	movwf	??_main
  1667  00B7  3080               	movlw	128
  1668  00B8  0254               	subwf	??_main,w
  1669  00B9  1D03               	skipz
  1670  00BA  28BE               	goto	u2565
  1671  00BB  3005               	movlw	5
  1672  00BC  0021               	movlb	1	; select bank1
  1673  00BD  023B               	subwf	main@i^(0+128),w
  1674  00BE                     u2565:	
  1675  00BE  1C03               	skipc
  1676  00BF  288A               	goto	l1934
  1677  00C0                     l1940:	
  1678                           
  1679                           ;main.c: 82: }
  1680                           ;main.c: 83: initPD3535(0x03);
  1681  00C0  3003               	movlw	3
  1682  00C1  3186  266C  3180   	fcall	_initPD3535
  1683                           
  1684                           ;main.c: 85: printVal("LUXM");
  1685  00C4  3000               	movlw	low (STR_1| (0+32768))
  1686  00C5  0020               	movlb	0	; select bank0
  1687  00C6  00A0               	movwf	printVal@str
  1688  00C7  3087               	movlw	high (STR_1| (0+32768))
  1689  00C8  00A1               	movwf	printVal@str+1
  1690  00C9  3185  254E  3180   	fcall	_printVal
  1691                           
  1692                           ;main.c: 90: INTCONbits.PEIE = 1;
  1693  00CC  170B               	bsf	11,6	;volatile
  1694                           
  1695                           ;main.c: 91: INTCONbits.GIE = 1;
  1696  00CD  178B               	bsf	11,7	;volatile
  1697                           
  1698                           ;main.c: 94: _delay((unsigned long)((500)*(16000000/4000.0)));
  1699  00CE  300B               	movlw	11
  1700  00CF  0020               	movlb	0	; select bank0
  1701  00D0  00D6               	movwf	??_main+2
  1702  00D1  3026               	movlw	38
  1703  00D2  00D5               	movwf	??_main+1
  1704  00D3  3066               	movlw	102
  1705  00D4  00D4               	movwf	??_main
  1706  00D5                     u2667:	
  1707  00D5  0BD4               	decfsz	??_main,f
  1708  00D6  28D5               	goto	u2667
  1709  00D7  0BD5               	decfsz	??_main+1,f
  1710  00D8  28D5               	goto	u2667
  1711  00D9  0BD6               	decfsz	??_main+2,f
  1712  00DA  28D5               	goto	u2667
  1713  00DB  3200               	nop2
  1714  00DC                     l1950:	
  1715                           ;main.c: 96: while (TRUE) {
  1716                           
  1717                           
  1718                           ;main.c: 99: if (bMedida == TRUE) {
  1719  00DC  0020               	movlb	0	; select bank0
  1720  00DD  086A               	movf	_bMedida,w	;volatile
  1721  00DE  3A01               	xorlw	1
  1722  00DF  1D03               	skipz
  1723  00E0  28DC               	goto	l1950
  1724                           
  1725                           ;main.c: 108: ad_res = 0;
  1726  00E1  3000               	movlw	0
  1727  00E2  00DF               	movwf	_ad_res+3
  1728  00E3  3000               	movlw	0
  1729  00E4  00DE               	movwf	_ad_res+2
  1730  00E5  3000               	movlw	0
  1731  00E6  00DD               	movwf	_ad_res+1
  1732  00E7  3000               	movlw	0
  1733  00E8  00DC               	movwf	_ad_res
  1734                           
  1735                           ;main.c: 110: for (i = 0; i < 32; i++) {
  1736  00E9  0021               	movlb	1	; select bank1
  1737  00EA  01BB               	clrf	main@i^(0+128)
  1738  00EB  01BC               	clrf	(main@i+1)^(0+128)
  1739  00EC  083C               	movf	(main@i+1)^(0+128),w
  1740  00ED  3A80               	xorlw	128
  1741  00EE  0020               	movlb	0	; select bank0
  1742  00EF  00D4               	movwf	??_main
  1743  00F0  3080               	movlw	128
  1744  00F1  0254               	subwf	??_main,w
  1745  00F2  1D03               	skipz
  1746  00F3  28F7               	goto	u2585
  1747  00F4  3020               	movlw	32
  1748  00F5  0021               	movlb	1	; select bank1
  1749  00F6  023B               	subwf	main@i^(0+128),w
  1750  00F7                     u2585:	
  1751  00F7  1803               	btfsc	3,0
  1752  00F8  2935               	goto	l1962
  1753  00F9                     l68:	
  1754                           
  1755                           ;main.c: 112: { ADCON0bits.GO_nDONE = 1; while(ADCON0bits.GO_nDONE); };
  1756  00F9  0021               	movlb	1	; select bank1
  1757  00FA  149D               	bsf	29,1	;volatile
  1758  00FB                     l70:	
  1759  00FB  189D               	btfsc	29,1	;volatile
  1760  00FC  28FB               	goto	l70
  1761                           
  1762                           ;main.c: 114: ad_res = ad_res + (ADRESL + 256 * ADRESH);
  1763  00FD  0020               	movlb	0	; select bank0
  1764  00FE  085C               	movf	_ad_res,w
  1765  00FF  00D4               	movwf	??_main
  1766  0100  085D               	movf	_ad_res+1,w
  1767  0101  00D5               	movwf	??_main+1
  1768  0102  085E               	movf	_ad_res+2,w
  1769  0103  00D6               	movwf	??_main+2
  1770  0104  085F               	movf	_ad_res+3,w
  1771  0105  00D7               	movwf	??_main+3
  1772  0106  0021               	movlb	1	; select bank1
  1773  0107  081B               	movf	27,w	;volatile
  1774  0108  0020               	movlb	0	; select bank0
  1775  0109  00D8               	movwf	??_main+4
  1776  010A  0021               	movlb	1	; select bank1
  1777  010B  081C               	movf	28,w	;volatile
  1778  010C  0020               	movlb	0	; select bank0
  1779  010D  00D9               	movwf	??_main+5
  1780  010E  3000               	movlw	0
  1781  010F  1BD9               	btfsc	??_main+5,7
  1782  0110  30FF               	movlw	255
  1783  0111  00DA               	movwf	??_main+6
  1784  0112  00DB               	movwf	??_main+7
  1785  0113  0858               	movf	??_main+4,w
  1786  0114  07D4               	addwf	??_main,f
  1787  0115  0859               	movf	??_main+5,w
  1788  0116  3DD5               	addwfc	??_main+1,f
  1789  0117  085A               	movf	??_main+6,w
  1790  0118  3DD6               	addwfc	??_main+2,f
  1791  0119  085B               	movf	??_main+7,w
  1792  011A  3DD7               	addwfc	??_main+3,f
  1793  011B  0857               	movf	??_main+3,w
  1794  011C  00DF               	movwf	_ad_res+3
  1795  011D  0856               	movf	??_main+2,w
  1796  011E  00DE               	movwf	_ad_res+2
  1797  011F  0855               	movf	??_main+1,w
  1798  0120  00DD               	movwf	_ad_res+1
  1799  0121  0854               	movf	??_main,w
  1800  0122  00DC               	movwf	_ad_res
  1801  0123  3001               	movlw	1
  1802  0124  0021               	movlb	1	; select bank1
  1803  0125  07BB               	addwf	main@i^(0+128),f
  1804  0126  3000               	movlw	0
  1805  0127  3DBC               	addwfc	(main@i+1)^(0+128),f
  1806  0128  083C               	movf	(main@i+1)^(0+128),w
  1807  0129  3A80               	xorlw	128
  1808  012A  0020               	movlb	0	; select bank0
  1809  012B  00D4               	movwf	??_main
  1810  012C  3080               	movlw	128
  1811  012D  0254               	subwf	??_main,w
  1812  012E  1D03               	skipz
  1813  012F  2933               	goto	u2605
  1814  0130  3020               	movlw	32
  1815  0131  0021               	movlb	1	; select bank1
  1816  0132  023B               	subwf	main@i^(0+128),w
  1817  0133                     u2605:	
  1818  0133  1C03               	skipc
  1819  0134  28F9               	goto	l68
  1820  0135                     l1962:	
  1821                           
  1822                           ;main.c: 115: }
  1823                           ;main.c: 117: ad_res /= 32;
  1824  0135  3005               	movlw	5
  1825  0136                     u2615:	
  1826  0136  0020               	movlb	0	; select bank0
  1827  0137  36DF               	lsrf	_ad_res+3,f
  1828  0138  0CDE               	rrf	_ad_res+2,f
  1829  0139  0CDD               	rrf	_ad_res+1,f
  1830  013A  0CDC               	rrf	_ad_res,f
  1831  013B  0B89               	decfsz	9,f
  1832  013C  2936               	goto	u2615
  1833                           
  1834                           ;main.c: 118: vr = (ad_res * 1000 / 1024)*4900;
  1835  013D  3000               	movlw	0
  1836  013E  00F9               	movwf	___lmul@multiplicand+3
  1837  013F  3000               	movlw	0
  1838  0140  00F8               	movwf	___lmul@multiplicand+2
  1839  0141  3003               	movlw	3
  1840  0142  00F7               	movwf	___lmul@multiplicand+1
  1841  0143  30E8               	movlw	232
  1842  0144  00F6               	movwf	___lmul@multiplicand
  1843  0145  085F               	movf	_ad_res+3,w
  1844  0146  00F5               	movwf	___lmul@multiplier+3
  1845  0147  085E               	movf	_ad_res+2,w
  1846  0148  00F4               	movwf	___lmul@multiplier+2
  1847  0149  085D               	movf	_ad_res+1,w
  1848  014A  00F3               	movwf	___lmul@multiplier+1
  1849  014B  085C               	movf	_ad_res,w
  1850  014C  00F2               	movwf	___lmul@multiplier
  1851  014D  3185  258E  3180   	fcall	___lmul
  1852  0150  0872               	movf	?___lmul,w
  1853  0151  0020               	movlb	0	; select bank0
  1854  0152  00D4               	movwf	??_main
  1855  0153  0873               	movf	?___lmul+1,w
  1856  0154  00D5               	movwf	??_main+1
  1857  0155  0874               	movf	?___lmul+2,w
  1858  0156  00D6               	movwf	??_main+2
  1859  0157  0875               	movf	?___lmul+3,w
  1860  0158  00D7               	movwf	??_main+3
  1861  0159  300A               	movlw	10
  1862  015A                     u2625:	
  1863  015A  36D7               	lsrf	??_main+3,f
  1864  015B  0CD6               	rrf	??_main+2,f
  1865  015C  0CD5               	rrf	??_main+1,f
  1866  015D  0CD4               	rrf	??_main,f
  1867  015E  0B89               	decfsz	9,f
  1868  015F  295A               	goto	u2625
  1869  0160  0857               	movf	??_main+3,w
  1870  0161  0021               	movlb	1	; select bank1
  1871  0162  00BA               	movwf	(_main$1204+3)^(0+128)
  1872  0163  0020               	movlb	0	; select bank0
  1873  0164  0856               	movf	??_main+2,w
  1874  0165  0021               	movlb	1	; select bank1
  1875  0166  00B9               	movwf	(_main$1204+2)^(0+128)
  1876  0167  0020               	movlb	0	; select bank0
  1877  0168  0855               	movf	??_main+1,w
  1878  0169  0021               	movlb	1	; select bank1
  1879  016A  00B8               	movwf	(_main$1204+1)^(0+128)
  1880  016B  0020               	movlb	0	; select bank0
  1881  016C  0854               	movf	??_main,w
  1882  016D  0021               	movlb	1	; select bank1
  1883  016E  00B7               	movwf	_main$1204^(0+128)
  1884                           
  1885                           ;main.c: 118: vr = (ad_res * 1000 / 1024)*4900;
  1886  016F  083A               	movf	(_main$1204+3)^(0+128),w
  1887  0170  00F5               	movwf	___lmul@multiplier+3
  1888  0171  0839               	movf	(_main$1204+2)^(0+128),w
  1889  0172  00F4               	movwf	___lmul@multiplier+2
  1890  0173  0838               	movf	(_main$1204+1)^(0+128),w
  1891  0174  00F3               	movwf	___lmul@multiplier+1
  1892  0175  0837               	movf	_main$1204^(0+128),w
  1893  0176  00F2               	movwf	___lmul@multiplier
  1894  0177  3000               	movlw	0
  1895  0178  00F9               	movwf	___lmul@multiplicand+3
  1896  0179  3000               	movlw	0
  1897  017A  00F8               	movwf	___lmul@multiplicand+2
  1898  017B  3013               	movlw	19
  1899  017C  00F7               	movwf	___lmul@multiplicand+1
  1900  017D  3024               	movlw	36
  1901  017E  00F6               	movwf	___lmul@multiplicand
  1902  017F  3185  258E  3180   	fcall	___lmul
  1903  0182  0875               	movf	?___lmul+3,w
  1904  0183  0021               	movlb	1	; select bank1
  1905  0184  00A7               	movwf	(_vr+3)^(0+128)
  1906  0185  0874               	movf	?___lmul+2,w
  1907  0186  00A6               	movwf	(_vr+2)^(0+128)
  1908  0187  0873               	movf	?___lmul+1,w
  1909  0188  00A5               	movwf	(_vr+1)^(0+128)
  1910  0189  0872               	movf	?___lmul,w
  1911  018A  00A4               	movwf	_vr^(0+128)
  1912                           
  1913                           ;main.c: 124: lux = (vr / 1e4) * 2;
  1914  018B  0827               	movf	(_vr+3)^(0+128),w
  1915  018C  0020               	movlb	0	; select bank0
  1916  018D  00A3               	movwf	___lltoft@c+3
  1917  018E  0021               	movlb	1	; select bank1
  1918  018F  0826               	movf	(_vr+2)^(0+128),w
  1919  0190  0020               	movlb	0	; select bank0
  1920  0191  00A2               	movwf	___lltoft@c+2
  1921  0192  0021               	movlb	1	; select bank1
  1922  0193  0825               	movf	(_vr+1)^(0+128),w
  1923  0194  0020               	movlb	0	; select bank0
  1924  0195  00A1               	movwf	___lltoft@c+1
  1925  0196  0021               	movlb	1	; select bank1
  1926  0197  0824               	movf	_vr^(0+128),w
  1927  0198  0020               	movlb	0	; select bank0
  1928  0199  00A0               	movwf	___lltoft@c
  1929  019A  3186  261C  3180   	fcall	___lltoft
  1930  019D  0020               	movlb	0	; select bank0
  1931  019E  0820               	movf	?___lltoft,w
  1932  019F  00A9               	movwf	___ftdiv@f1
  1933  01A0  0821               	movf	?___lltoft+1,w
  1934  01A1  00AA               	movwf	___ftdiv@f1+1
  1935  01A2  0822               	movf	?___lltoft+2,w
  1936  01A3  00AB               	movwf	___ftdiv@f1+2
  1937  01A4  3040               	movlw	64
  1938  01A5  00A6               	movwf	___ftdiv@f2
  1939  01A6  301C               	movlw	28
  1940  01A7  00A7               	movwf	___ftdiv@f2+1
  1941  01A8  3046               	movlw	70
  1942  01A9  00A8               	movwf	___ftdiv@f2+2
  1943  01AA  3182  229F  3180   	fcall	___ftdiv
  1944  01AD  0020               	movlb	0	; select bank0
  1945  01AE  0826               	movf	?___ftdiv,w
  1946  01AF  00B9               	movwf	___ftmul@f2
  1947  01B0  0827               	movf	?___ftdiv+1,w
  1948  01B1  00BA               	movwf	___ftmul@f2+1
  1949  01B2  0828               	movf	?___ftdiv+2,w
  1950  01B3  00BB               	movwf	___ftmul@f2+2
  1951  01B4  3000               	movlw	0
  1952  01B5  00B6               	movwf	___ftmul@f1
  1953  01B6  3000               	movlw	0
  1954  01B7  00B7               	movwf	___ftmul@f1+1
  1955  01B8  3040               	movlw	64
  1956  01B9  00B8               	movwf	___ftmul@f1+2
  1957  01BA  3181  21EB  3180   	fcall	___ftmul
  1958  01BD  0020               	movlb	0	; select bank0
  1959  01BE  0836               	movf	?___ftmul,w
  1960  01BF  00C6               	movwf	___fttol@f1
  1961  01C0  0837               	movf	?___ftmul+1,w
  1962  01C1  00C7               	movwf	___fttol@f1+1
  1963  01C2  0838               	movf	?___ftmul+2,w
  1964  01C3  00C8               	movwf	___fttol@f1+2
  1965  01C4  3183  23D1  3180   	fcall	___fttol
  1966  01C7  0020               	movlb	0	; select bank0
  1967  01C8  0849               	movf	?___fttol+3,w
  1968  01C9  00E3               	movwf	_lux+3
  1969  01CA  0848               	movf	?___fttol+2,w
  1970  01CB  00E2               	movwf	_lux+2
  1971  01CC  0847               	movf	?___fttol+1,w
  1972  01CD  00E1               	movwf	_lux+1
  1973  01CE  0846               	movf	?___fttol,w
  1974  01CF  00E0               	movwf	_lux
  1975                           
  1976                           ;main.c: 125: ltoa(Resul, lux, 10);
  1977  01D0  0863               	movf	_lux+3,w
  1978  01D1  00B6               	movwf	ltoa@val+3
  1979  01D2  0862               	movf	_lux+2,w
  1980  01D3  00B5               	movwf	ltoa@val+2
  1981  01D4  0861               	movf	_lux+1,w
  1982  01D5  00B4               	movwf	ltoa@val+1
  1983  01D6  0860               	movf	_lux,w
  1984  01D7  00B3               	movwf	ltoa@val
  1985  01D8  300A               	movlw	10
  1986  01D9  00B7               	movwf	ltoa@base
  1987  01DA  3000               	movlw	0
  1988  01DB  00B8               	movwf	ltoa@base+1
  1989  01DC  30B2               	movlw	_Resul& (0+255)
  1990  01DD  3185  25C0  3180   	fcall	_ltoa
  1991                           
  1992                           ;main.c: 126: printVal(Resul);
  1993  01E0  30B2               	movlw	low _Resul
  1994  01E1  0020               	movlb	0	; select bank0
  1995  01E2  00A0               	movwf	printVal@str
  1996  01E3  3000               	movlw	high _Resul
  1997  01E4  00A1               	movwf	printVal@str+1
  1998  01E5  3185  254E  3180   	fcall	_printVal
  1999                           
  2000                           ;main.c: 128: bMedida = FALSE;
  2001  01E8  0020               	movlb	0	; select bank0
  2002  01E9  01EA               	clrf	_bMedida	;volatile
  2003  01EA  28DC               	goto	l1950
  2004  01EB                     __end_of_main:	
  2005                           
  2006                           	psect	text1
  2007  054E                     __ptext1:	
  2008 ;; *************** function _printVal *****************
  2009 ;; Defined at:
  2010 ;;		line 91 in file "PD3535.c"
  2011 ;; Parameters:    Size  Location     Type
  2012 ;;  str             2    0[BANK0 ] PTR unsigned char 
  2013 ;;		 -> Resul(5), STR_1(5), 
  2014 ;; Auto vars:     Size  Location     Type
  2015 ;;  i               2    3[BANK0 ] int 
  2016 ;; Return value:  Size  Location     Type
  2017 ;;		None               void
  2018 ;; Registers used:
  2019 ;;		wreg, fsr0l, fsr0h, status,2, status,0, pclath, cstack
  2020 ;; Tracked objects:
  2021 ;;		On entry : 0/0
  2022 ;;		On exit  : 0/0
  2023 ;;		Unchanged: 0/0
  2024 ;; Data sizes:     COMMON   BANK0   BANK1   BANK2   BANK3   BANK4   BANK5   BANK6   BANK7   BANK8   BANK9  BANK10  BANK1
      +1  BANK12
  2025 ;;      Params:         0       2       0       0       0       0       0       0       0       0       0       0       
      +0       0
  2026 ;;      Locals:         0       2       0       0       0       0       0       0       0       0       0       0       
      +0       0
  2027 ;;      Temps:          0       1       0       0       0       0       0       0       0       0       0       0       
      +0       0
  2028 ;;      Totals:         0       5       0       0       0       0       0       0       0       0       0       0       
      +0       0
  2029 ;;Total ram usage:        5 bytes
  2030 ;; Hardware stack levels used:    1
  2031 ;; Hardware stack levels required when called:    3
  2032 ;; This function calls:
  2033 ;;		_disChar
  2034 ;; This function is called by:
  2035 ;;		_main
  2036 ;; This function uses a non-reentrant model
  2037 ;;
  2038                           
  2039                           
  2040                           ;psect for function _printVal
  2041  054E                     _printVal:	
  2042                           
  2043                           ;PD3535.c: 93: int i;
  2044                           ;PD3535.c: 95: i = 0;
  2045                           
  2046                           ;incstack = 0
  2047                           ; Regs used in _printVal: [wreg-fsr0h+status,2+status,0+pclath+cstack]
  2048  054E  0020               	movlb	0	; select bank0
  2049  054F  01A3               	clrf	printVal@i
  2050  0550  01A4               	clrf	printVal@i+1
  2051  0551                     l1708:	
  2052                           ;PD3535.c: 96: while (*str) {
  2053                           
  2054  0551  0820               	movf	printVal@str,w
  2055  0552  0084               	movwf	4
  2056  0553  0821               	movf	printVal@str+1,w
  2057  0554  0085               	movwf	5
  2058  0555  0800               	movf	0,w	;code access
  2059  0556  3800               	iorlw	0
  2060  0557  1903               	btfsc	3,2
  2061  0558  2D6B               	goto	l1710
  2062                           
  2063                           ;PD3535.c: 98: disChar(*str++);
  2064  0559  0820               	movf	printVal@str,w
  2065  055A  0084               	movwf	4
  2066  055B  0821               	movf	printVal@str+1,w
  2067  055C  0085               	movwf	5
  2068  055D  0800               	movf	0,w	;code access
  2069  055E  3186  2646  3185   	fcall	_disChar
  2070  0561  3001               	movlw	1
  2071  0562  0020               	movlb	0	; select bank0
  2072  0563  07A0               	addwf	printVal@str,f
  2073  0564  3000               	movlw	0
  2074  0565  3DA1               	addwfc	printVal@str+1,f
  2075                           
  2076                           ;PD3535.c: 100: i++;
  2077  0566  3001               	movlw	1
  2078  0567  07A3               	addwf	printVal@i,f
  2079  0568  3000               	movlw	0
  2080  0569  3DA4               	addwfc	printVal@i+1,f
  2081  056A  2D51               	goto	l1708
  2082  056B                     l1710:	
  2083                           
  2084                           ;PD3535.c: 102: }
  2085                           ;PD3535.c: 104: if (i < 4) {
  2086  056B  0824               	movf	printVal@i+1,w
  2087  056C  3A80               	xorlw	128
  2088  056D  00A2               	movwf	??_printVal
  2089  056E  3080               	movlw	128
  2090  056F  0222               	subwf	??_printVal,w
  2091  0570  1D03               	skipz
  2092  0571  2D74               	goto	u2155
  2093  0572  3004               	movlw	4
  2094  0573  0223               	subwf	printVal@i,w
  2095  0574                     u2155:	
  2096  0574  1803               	skipnc
  2097  0575  0008               	return
  2098                           
  2099                           ;PD3535.c: 105: if (i == 3)
  2100  0576  3003               	movlw	3
  2101  0577  0020               	movlb	0	; select bank0
  2102  0578  0623               	xorwf	printVal@i,w
  2103  0579  0424               	iorwf	printVal@i+1,w
  2104  057A  1D03               	skipz
  2105  057B  2D80               	goto	l1716
  2106                           
  2107                           ;PD3535.c: 106: disChar('L');
  2108  057C  304C               	movlw	76
  2109  057D  3186  2646  3185   	fcall	_disChar
  2110  0580                     l1716:	
  2111                           
  2112                           ;PD3535.c: 107: if (i == 2) {
  2113  0580  3002               	movlw	2
  2114  0581  0020               	movlb	0	; select bank0
  2115  0582  0623               	xorwf	printVal@i,w
  2116  0583  0424               	iorwf	printVal@i+1,w
  2117  0584  1D03               	skipz
  2118  0585  0008               	return
  2119                           
  2120                           ;PD3535.c: 108: disChar(' ');
  2121  0586  3020               	movlw	32
  2122  0587  3186  2646  3185   	fcall	_disChar
  2123                           
  2124                           ;PD3535.c: 109: disChar('L');
  2125  058A  304C               	movlw	76
  2126  058B  3186  2646         	fcall	_disChar
  2127  058D  0008               	return
  2128  058E                     __end_of_printVal:	
  2129                           
  2130                           	psect	text2
  2131  0646                     __ptext2:	
  2132 ;; *************** function _disChar *****************
  2133 ;; Defined at:
  2134 ;;		line 64 in file "PD3535.c"
  2135 ;; Parameters:    Size  Location     Type
  2136 ;;  ch              1    wreg     unsigned char 
  2137 ;; Auto vars:     Size  Location     Type
  2138 ;;  ch              1    7[COMMON] unsigned char 
  2139 ;;  buff            2    8[COMMON] struct .
  2140 ;; Return value:  Size  Location     Type
  2141 ;;		None               void
  2142 ;; Registers used:
  2143 ;;		wreg, status,2, status,0, pclath, cstack
  2144 ;; Tracked objects:
  2145 ;;		On entry : 0/0
  2146 ;;		On exit  : 0/0
  2147 ;;		Unchanged: 0/0
  2148 ;; Data sizes:     COMMON   BANK0   BANK1   BANK2   BANK3   BANK4   BANK5   BANK6   BANK7   BANK8   BANK9  BANK10  BANK1
      +1  BANK12
  2149 ;;      Params:         0       0       0       0       0       0       0       0       0       0       0       0       
      +0       0
  2150 ;;      Locals:         3       0       0       0       0       0       0       0       0       0       0       0       
      +0       0
  2151 ;;      Temps:          1       0       0       0       0       0       0       0       0       0       0       0       
      +0       0
  2152 ;;      Totals:         4       0       0       0       0       0       0       0       0       0       0       0       
      +0       0
  2153 ;;Total ram usage:        4 bytes
  2154 ;; Hardware stack levels used:    1
  2155 ;; Hardware stack levels required when called:    2
  2156 ;; This function calls:
  2157 ;;		_snd4094
  2158 ;; This function is called by:
  2159 ;;		_printVal
  2160 ;; This function uses a non-reentrant model
  2161 ;;
  2162                           
  2163                           
  2164                           ;psect for function _disChar
  2165  0646                     _disChar:	
  2166                           
  2167                           ;incstack = 0
  2168                           ; Regs used in _disChar: [wreg+status,2+status,0+pclath+cstack]
  2169                           ;disChar@ch stored from wreg
  2170  0646  00F7               	movwf	disChar@ch
  2171                           
  2172                           ;PD3535.c: 65: static int pos = 7;
  2173                           ;PD3535.c: 66: WORD_VAL buff;
  2174                           ;PD3535.c: 67: buff.v[0] = ch;
  2175  0647  0877               	movf	disChar@ch,w
  2176  0648  00F6               	movwf	??_disChar
  2177  0649  0876               	movf	??_disChar,w
  2178  064A  00F8               	movwf	disChar@buff
  2179                           
  2180                           ;PD3535.c: 68: buff.v[1] = pos;
  2181  064B  087A               	movf	disChar@pos,w
  2182  064C  00F6               	movwf	??_disChar
  2183  064D  0876               	movf	??_disChar,w
  2184  064E  00F9               	movwf	disChar@buff+1
  2185                           
  2186                           ;PD3535.c: 69: snd4094(buff);
  2187  064F  0879               	movf	disChar@buff+1,w
  2188  0650  01F3               	clrf	snd4094@dato+1
  2189  0651  07F3               	addwf	snd4094@dato+1,f
  2190  0652  0878               	movf	disChar@buff,w
  2191  0653  01F2               	clrf	snd4094@dato
  2192  0654  07F2               	addwf	snd4094@dato,f
  2193  0655  3185  25F0  3186   	fcall	_snd4094
  2194                           
  2195                           ;PD3535.c: 70: if (--pos < 4)
  2196  0658  30FF               	movlw	255
  2197  0659  07FA               	addwf	disChar@pos,f
  2198  065A  30FF               	movlw	255
  2199  065B  3DFB               	addwfc	disChar@pos+1,f
  2200  065C  087B               	movf	disChar@pos+1,w
  2201  065D  3A80               	xorlw	128
  2202  065E  00F6               	movwf	??_disChar
  2203  065F  3080               	movlw	128
  2204  0660  0276               	subwf	??_disChar,w
  2205  0661  1D03               	skipz
  2206  0662  2E65               	goto	u1995
  2207  0663  3004               	movlw	4
  2208  0664  027A               	subwf	disChar@pos,w
  2209  0665                     u1995:	
  2210  0665  1803               	skipnc
  2211  0666  0008               	return
  2212                           
  2213                           ;PD3535.c: 71: pos = 7;
  2214  0667  3007               	movlw	7
  2215  0668  00FA               	movwf	disChar@pos
  2216  0669  3000               	movlw	0
  2217  066A  00FB               	movwf	disChar@pos+1
  2218  066B  0008               	return
  2219  066C                     __end_of_disChar:	
  2220                           
  2221                           	psect	text3
  2222  05C0                     __ptext3:	
  2223 ;; *************** function _ltoa *****************
  2224 ;; Defined at:
  2225 ;;		line 7 in file "C:\Program Files\Microchip\xc8\v1.33\sources\common\ltoa.c"
  2226 ;; Parameters:    Size  Location     Type
  2227 ;;  buf             1    wreg     PTR unsigned char 
  2228 ;;		 -> Resul(5), 
  2229 ;;  val             4   19[BANK0 ] long 
  2230 ;;  base            2   23[BANK0 ] int 
  2231 ;; Auto vars:     Size  Location     Type
  2232 ;;  buf             1   27[BANK0 ] PTR unsigned char 
  2233 ;;		 -> Resul(5), 
  2234 ;;  cp              1   26[BANK0 ] PTR unsigned char 
  2235 ;;		 -> Resul(5), 
  2236 ;; Return value:  Size  Location     Type
  2237 ;;                  1    wreg      PTR unsigned char 
  2238 ;; Registers used:
  2239 ;;		wreg, fsr1l, fsr1h, status,2, status,0, pclath, cstack
  2240 ;; Tracked objects:
  2241 ;;		On entry : 0/0
  2242 ;;		On exit  : 0/0
  2243 ;;		Unchanged: 0/0
  2244 ;; Data sizes:     COMMON   BANK0   BANK1   BANK2   BANK3   BANK4   BANK5   BANK6   BANK7   BANK8   BANK9  BANK10  BANK1
      +1  BANK12
  2245 ;;      Params:         0       6       0       0       0       0       0       0       0       0       0       0       
      +0       0
  2246 ;;      Locals:         0       2       0       0       0       0       0       0       0       0       0       0       
      +0       0
  2247 ;;      Temps:          0       1       0       0       0       0       0       0       0       0       0       0       
      +0       0
  2248 ;;      Totals:         0       9       0       0       0       0       0       0       0       0       0       0       
      +0       0
  2249 ;;Total ram usage:        9 bytes
  2250 ;; Hardware stack levels used:    1
  2251 ;; Hardware stack levels required when called:    3
  2252 ;; This function calls:
  2253 ;;		_ultoa
  2254 ;; This function is called by:
  2255 ;;		_main
  2256 ;; This function uses a non-reentrant model
  2257 ;;
  2258                           
  2259                           
  2260                           ;psect for function _ltoa
  2261  05C0                     _ltoa:	
  2262                           
  2263                           ;incstack = 0
  2264                           ; Regs used in _ltoa: [wreg+fsr1l+fsr1h+status,2+status,0+pclath+cstack]
  2265                           ;ltoa@buf stored from wreg
  2266  05C0  0020               	movlb	0	; select bank0
  2267  05C1  00BB               	movwf	ltoa@buf
  2268  05C2  083B               	movf	ltoa@buf,w
  2269  05C3  00B9               	movwf	??_ltoa
  2270  05C4  0839               	movf	??_ltoa,w
  2271  05C5  00BA               	movwf	ltoa@cp
  2272  05C6  1FB6               	btfss	ltoa@val+3,7
  2273  05C7  2DDE               	goto	l1730
  2274  05C8  302D               	movlw	45
  2275  05C9  00B9               	movwf	??_ltoa
  2276  05CA  083B               	movf	ltoa@buf,w
  2277  05CB  0086               	movwf	6
  2278  05CC  0187               	clrf	7
  2279  05CD  0839               	movf	??_ltoa,w
  2280  05CE  0081               	movwf	1
  2281  05CF  3001               	movlw	1
  2282  05D0  00B9               	movwf	??_ltoa
  2283  05D1  0839               	movf	??_ltoa,w
  2284  05D2  07BB               	addwf	ltoa@buf,f
  2285  05D3  09B3               	comf	ltoa@val,f
  2286  05D4  09B4               	comf	ltoa@val+1,f
  2287  05D5  09B5               	comf	ltoa@val+2,f
  2288  05D6  09B6               	comf	ltoa@val+3,f
  2289  05D7  0AB3               	incf	ltoa@val,f
  2290  05D8  1903               	skipnz
  2291  05D9  0AB4               	incf	ltoa@val+1,f
  2292  05DA  1903               	skipnz
  2293  05DB  0AB5               	incf	ltoa@val+2,f
  2294  05DC  1903               	skipnz
  2295  05DD  0AB6               	incf	ltoa@val+3,f
  2296  05DE                     l1730:	
  2297  05DE  0836               	movf	ltoa@val+3,w
  2298  05DF  00A9               	movwf	ultoa@val+3
  2299  05E0  0835               	movf	ltoa@val+2,w
  2300  05E1  00A8               	movwf	ultoa@val+2
  2301  05E2  0834               	movf	ltoa@val+1,w
  2302  05E3  00A7               	movwf	ultoa@val+1
  2303  05E4  0833               	movf	ltoa@val,w
  2304  05E5  00A6               	movwf	ultoa@val
  2305  05E6  0838               	movf	ltoa@base+1,w
  2306  05E7  01AB               	clrf	ultoa@base+1
  2307  05E8  07AB               	addwf	ultoa@base+1,f
  2308  05E9  0837               	movf	ltoa@base,w
  2309  05EA  01AA               	clrf	ultoa@base
  2310  05EB  07AA               	addwf	ultoa@base,f
  2311  05EC  083B               	movf	ltoa@buf,w
  2312  05ED  3183  2348         	fcall	_ultoa
  2313  05EF  0008               	return
  2314  05F0                     __end_of_ltoa:	
  2315                           ;	Return value of _ltoa is never used
  2316                           
  2317                           
  2318                           	psect	text4
  2319  0348                     __ptext4:	
  2320 ;; *************** function _ultoa *****************
  2321 ;; Defined at:
  2322 ;;		line 32 in file "C:\Program Files\Microchip\xc8\v1.33\sources\common\ltoa.c"
  2323 ;; Parameters:    Size  Location     Type
  2324 ;;  buf             1    wreg     PTR unsigned char 
  2325 ;;		 -> Resul(5), 
  2326 ;;  val             4    6[BANK0 ] unsigned long 
  2327 ;;  base            2   10[BANK0 ] int 
  2328 ;; Auto vars:     Size  Location     Type
  2329 ;;  buf             1   18[BANK0 ] PTR unsigned char 
  2330 ;;		 -> Resul(5), 
  2331 ;;  v               4   13[BANK0 ] unsigned long 
  2332 ;;  c               1   17[BANK0 ] unsigned char 
  2333 ;; Return value:  Size  Location     Type
  2334 ;;                  1    wreg      PTR unsigned char 
  2335 ;; Registers used:
  2336 ;;		wreg, fsr1l, fsr1h, status,2, status,0, pclath, cstack
  2337 ;; Tracked objects:
  2338 ;;		On entry : 0/0
  2339 ;;		On exit  : 0/0
  2340 ;;		Unchanged: 0/0
  2341 ;; Data sizes:     COMMON   BANK0   BANK1   BANK2   BANK3   BANK4   BANK5   BANK6   BANK7   BANK8   BANK9  BANK10  BANK1
      +1  BANK12
  2342 ;;      Params:         0       6       0       0       0       0       0       0       0       0       0       0       
      +0       0
  2343 ;;      Locals:         0       6       0       0       0       0       0       0       0       0       0       0       
      +0       0
  2344 ;;      Temps:          0       1       0       0       0       0       0       0       0       0       0       0       
      +0       0
  2345 ;;      Totals:         0      13       0       0       0       0       0       0       0       0       0       0       
      +0       0
  2346 ;;Total ram usage:       13 bytes
  2347 ;; Hardware stack levels used:    1
  2348 ;; Hardware stack levels required when called:    2
  2349 ;; This function calls:
  2350 ;;		___lldiv
  2351 ;;		___llmod
  2352 ;; This function is called by:
  2353 ;;		_ltoa
  2354 ;; This function uses a non-reentrant model
  2355 ;;
  2356                           
  2357                           
  2358                           ;psect for function _ultoa
  2359  0348                     _ultoa:	
  2360                           
  2361                           ;incstack = 0
  2362                           ; Regs used in _ultoa: [wreg+fsr1l+fsr1h+status,2+status,0+pclath+cstack]
  2363                           ;ultoa@buf stored from wreg
  2364  0348  0020               	movlb	0	; select bank0
  2365  0349  00B2               	movwf	ultoa@buf
  2366  034A  0829               	movf	ultoa@val+3,w
  2367  034B  00B0               	movwf	ultoa@v+3
  2368  034C  0828               	movf	ultoa@val+2,w
  2369  034D  00AF               	movwf	ultoa@v+2
  2370  034E  0827               	movf	ultoa@val+1,w
  2371  034F  00AE               	movwf	ultoa@v+1
  2372  0350  0826               	movf	ultoa@val,w
  2373  0351  00AD               	movwf	ultoa@v
  2374  0352                     l1668:	
  2375  0352  082A               	movf	ultoa@base,w
  2376  0353  00F2               	movwf	___lldiv@divisor
  2377  0354  082B               	movf	ultoa@base+1,w
  2378  0355  00F3               	movwf	___lldiv@divisor+1
  2379  0356  0D89               	rlf	9,f
  2380  0357  3B89               	subwfb	9,f
  2381  0358  0989               	comf	9,f
  2382  0359  00F4               	movwf	___lldiv@divisor+2
  2383  035A  00F5               	movwf	___lldiv@divisor+3
  2384  035B  0830               	movf	ultoa@v+3,w
  2385  035C  00F9               	movwf	___lldiv@dividend+3
  2386  035D  082F               	movf	ultoa@v+2,w
  2387  035E  00F8               	movwf	___lldiv@dividend+2
  2388  035F  082E               	movf	ultoa@v+1,w
  2389  0360  00F7               	movwf	___lldiv@dividend+1
  2390  0361  082D               	movf	ultoa@v,w
  2391  0362  00F6               	movwf	___lldiv@dividend
  2392  0363  3184  24B8  3183   	fcall	___lldiv
  2393  0366  0875               	movf	?___lldiv+3,w
  2394  0367  0020               	movlb	0	; select bank0
  2395  0368  00B0               	movwf	ultoa@v+3
  2396  0369  0874               	movf	?___lldiv+2,w
  2397  036A  00AF               	movwf	ultoa@v+2
  2398  036B  0873               	movf	?___lldiv+1,w
  2399  036C  00AE               	movwf	ultoa@v+1
  2400  036D  0872               	movf	?___lldiv,w
  2401  036E  00AD               	movwf	ultoa@v
  2402  036F  3001               	movlw	1
  2403  0370  00AC               	movwf	??_ultoa
  2404  0371  082C               	movf	??_ultoa,w
  2405  0372  07B2               	addwf	ultoa@buf,f
  2406  0373  0830               	movf	ultoa@v+3,w
  2407  0374  042F               	iorwf	ultoa@v+2,w
  2408  0375  042E               	iorwf	ultoa@v+1,w
  2409  0376  042D               	iorwf	ultoa@v,w
  2410  0377  1D03               	skipz
  2411  0378  2B52               	goto	l1668
  2412  0379  0832               	movf	ultoa@buf,w
  2413  037A  0086               	movwf	6
  2414  037B  0187               	clrf	7
  2415  037C  0181               	clrf	1
  2416  037D  3001               	movlw	1
  2417  037E  02B2               	subwf	ultoa@buf,f
  2418  037F                     l1678:	
  2419  037F  082A               	movf	ultoa@base,w
  2420  0380  00F2               	movwf	___llmod@divisor
  2421  0381  082B               	movf	ultoa@base+1,w
  2422  0382  00F3               	movwf	___llmod@divisor+1
  2423  0383  0D89               	rlf	9,f
  2424  0384  3B89               	subwfb	9,f
  2425  0385  0989               	comf	9,f
  2426  0386  00F4               	movwf	___llmod@divisor+2
  2427  0387  00F5               	movwf	___llmod@divisor+3
  2428  0388  0829               	movf	ultoa@val+3,w
  2429  0389  00F9               	movwf	___llmod@dividend+3
  2430  038A  0828               	movf	ultoa@val+2,w
  2431  038B  00F8               	movwf	___llmod@dividend+2
  2432  038C  0827               	movf	ultoa@val+1,w
  2433  038D  00F7               	movwf	___llmod@dividend+1
  2434  038E  0826               	movf	ultoa@val,w
  2435  038F  00F6               	movwf	___llmod@dividend
  2436  0390  3185  250B  3183   	fcall	___llmod
  2437  0393  0872               	movf	?___llmod,w
  2438  0394  0020               	movlb	0	; select bank0
  2439  0395  00AC               	movwf	??_ultoa
  2440  0396  082C               	movf	??_ultoa,w
  2441  0397  00B1               	movwf	ultoa@c
  2442  0398  082A               	movf	ultoa@base,w
  2443  0399  00F2               	movwf	___lldiv@divisor
  2444  039A  082B               	movf	ultoa@base+1,w
  2445  039B  00F3               	movwf	___lldiv@divisor+1
  2446  039C  0D89               	rlf	9,f
  2447  039D  3B89               	subwfb	9,f
  2448  039E  0989               	comf	9,f
  2449  039F  00F4               	movwf	___lldiv@divisor+2
  2450  03A0  00F5               	movwf	___lldiv@divisor+3
  2451  03A1  0829               	movf	ultoa@val+3,w
  2452  03A2  00F9               	movwf	___lldiv@dividend+3
  2453  03A3  0828               	movf	ultoa@val+2,w
  2454  03A4  00F8               	movwf	___lldiv@dividend+2
  2455  03A5  0827               	movf	ultoa@val+1,w
  2456  03A6  00F7               	movwf	___lldiv@dividend+1
  2457  03A7  0826               	movf	ultoa@val,w
  2458  03A8  00F6               	movwf	___lldiv@dividend
  2459  03A9  3184  24B8  3183   	fcall	___lldiv
  2460  03AC  0875               	movf	?___lldiv+3,w
  2461  03AD  0020               	movlb	0	; select bank0
  2462  03AE  00A9               	movwf	ultoa@val+3
  2463  03AF  0874               	movf	?___lldiv+2,w
  2464  03B0  00A8               	movwf	ultoa@val+2
  2465  03B1  0873               	movf	?___lldiv+1,w
  2466  03B2  00A7               	movwf	ultoa@val+1
  2467  03B3  0872               	movf	?___lldiv,w
  2468  03B4  00A6               	movwf	ultoa@val
  2469  03B5  300A               	movlw	10
  2470  03B6  0231               	subwf	ultoa@c,w
  2471  03B7  1C03               	skipc
  2472  03B8  2BBD               	goto	l558
  2473  03B9  3007               	movlw	7
  2474  03BA  00AC               	movwf	??_ultoa
  2475  03BB  082C               	movf	??_ultoa,w
  2476  03BC  07B1               	addwf	ultoa@c,f
  2477  03BD                     l558:	
  2478  03BD  3030               	movlw	48
  2479  03BE  00AC               	movwf	??_ultoa
  2480  03BF  082C               	movf	??_ultoa,w
  2481  03C0  07B1               	addwf	ultoa@c,f
  2482  03C1  0831               	movf	ultoa@c,w
  2483  03C2  00AC               	movwf	??_ultoa
  2484  03C3  0832               	movf	ultoa@buf,w
  2485  03C4  0086               	movwf	6
  2486  03C5  0187               	clrf	7
  2487  03C6  082C               	movf	??_ultoa,w
  2488  03C7  0081               	movwf	1
  2489  03C8  3001               	movlw	1
  2490  03C9  02B2               	subwf	ultoa@buf,f
  2491  03CA  0829               	movf	ultoa@val+3,w
  2492  03CB  0428               	iorwf	ultoa@val+2,w
  2493  03CC  0427               	iorwf	ultoa@val+1,w
  2494  03CD  0426               	iorwf	ultoa@val,w
  2495  03CE  1903               	btfsc	3,2
  2496                           
  2497                           ;	Return value of _ultoa is never used
  2498  03CF  0008               	return
  2499  03D0  2B7F               	goto	l1678
  2500  03D1                     __end_of_ultoa:	
  2501                           
  2502                           	psect	text5
  2503  050B                     __ptext5:	
  2504 ;; *************** function ___llmod *****************
  2505 ;; Defined at:
  2506 ;;		line 6 in file "C:\Program Files\Microchip\xc8\v1.33\sources\common\llmod.c"
  2507 ;; Parameters:    Size  Location     Type
  2508 ;;  divisor         4    2[COMMON] unsigned long 
  2509 ;;  dividend        4    6[COMMON] unsigned long 
  2510 ;; Auto vars:     Size  Location     Type
  2511 ;;  counter         1    1[BANK0 ] unsigned char 
  2512 ;; Return value:  Size  Location     Type
  2513 ;;                  4    2[COMMON] unsigned long 
  2514 ;; Registers used:
  2515 ;;		wreg, status,2, status,0
  2516 ;; Tracked objects:
  2517 ;;		On entry : 0/0
  2518 ;;		On exit  : 0/0
  2519 ;;		Unchanged: 0/0
  2520 ;; Data sizes:     COMMON   BANK0   BANK1   BANK2   BANK3   BANK4   BANK5   BANK6   BANK7   BANK8   BANK9  BANK10  BANK1
      +1  BANK12
  2521 ;;      Params:         8       0       0       0       0       0       0       0       0       0       0       0       
      +0       0
  2522 ;;      Locals:         0       1       0       0       0       0       0       0       0       0       0       0       
      +0       0
  2523 ;;      Temps:          0       1       0       0       0       0       0       0       0       0       0       0       
      +0       0
  2524 ;;      Totals:         8       2       0       0       0       0       0       0       0       0       0       0       
      +0       0
  2525 ;;Total ram usage:       10 bytes
  2526 ;; Hardware stack levels used:    1
  2527 ;; Hardware stack levels required when called:    1
  2528 ;; This function calls:
  2529 ;;		Nothing
  2530 ;; This function is called by:
  2531 ;;		_ultoa
  2532 ;; This function uses a non-reentrant model
  2533 ;;
  2534                           
  2535                           
  2536                           ;psect for function ___llmod
  2537  050B                     ___llmod:	
  2538                           
  2539                           ;incstack = 0
  2540                           ; Regs used in ___llmod: [wreg+status,2+status,0]
  2541  050B  0875               	movf	___llmod@divisor+3,w
  2542  050C  0474               	iorwf	___llmod@divisor+2,w
  2543  050D  0473               	iorwf	___llmod@divisor+1,w
  2544  050E  0472               	iorwf	___llmod@divisor,w
  2545  050F  1903               	skipnz
  2546  0510  2D45               	goto	l1624
  2547  0511  0020               	movlb	0	; select bank0
  2548  0512  01A1               	clrf	___llmod@counter
  2549  0513  0AA1               	incf	___llmod@counter,f
  2550  0514                     l1614:	
  2551  0514  1BF5               	btfsc	___llmod@divisor+3,7
  2552  0515  2D22               	goto	l1616
  2553  0516  3001               	movlw	1
  2554  0517                     u1945:	
  2555  0517  35F2               	lslf	___llmod@divisor,f
  2556  0518  0DF3               	rlf	___llmod@divisor+1,f
  2557  0519  0DF4               	rlf	___llmod@divisor+2,f
  2558  051A  0DF5               	rlf	___llmod@divisor+3,f
  2559  051B  0B89               	decfsz	9,f
  2560  051C  2D17               	goto	u1945
  2561  051D  3001               	movlw	1
  2562  051E  00A0               	movwf	??___llmod
  2563  051F  0820               	movf	??___llmod,w
  2564  0520  07A1               	addwf	___llmod@counter,f
  2565  0521  2D14               	goto	l1614
  2566  0522                     l1616:	
  2567  0522  0875               	movf	___llmod@divisor+3,w
  2568  0523  0279               	subwf	___llmod@dividend+3,w
  2569  0524  1D03               	skipz
  2570  0525  2D30               	goto	u1965
  2571  0526  0874               	movf	___llmod@divisor+2,w
  2572  0527  0278               	subwf	___llmod@dividend+2,w
  2573  0528  1D03               	skipz
  2574  0529  2D30               	goto	u1965
  2575  052A  0873               	movf	___llmod@divisor+1,w
  2576  052B  0277               	subwf	___llmod@dividend+1,w
  2577  052C  1D03               	skipz
  2578  052D  2D30               	goto	u1965
  2579  052E  0872               	movf	___llmod@divisor,w
  2580  052F  0276               	subwf	___llmod@dividend,w
  2581  0530                     u1965:	
  2582  0530  1C03               	skipc
  2583  0531  2D3A               	goto	l1620
  2584  0532  0872               	movf	___llmod@divisor,w
  2585  0533  02F6               	subwf	___llmod@dividend,f
  2586  0534  0873               	movf	___llmod@divisor+1,w
  2587  0535  3BF7               	subwfb	___llmod@dividend+1,f
  2588  0536  0874               	movf	___llmod@divisor+2,w
  2589  0537  3BF8               	subwfb	___llmod@dividend+2,f
  2590  0538  0875               	movf	___llmod@divisor+3,w
  2591  0539  3BF9               	subwfb	___llmod@dividend+3,f
  2592  053A                     l1620:	
  2593  053A  3001               	movlw	1
  2594  053B                     u1975:	
  2595  053B  36F5               	lsrf	___llmod@divisor+3,f
  2596  053C  0CF4               	rrf	___llmod@divisor+2,f
  2597  053D  0CF3               	rrf	___llmod@divisor+1,f
  2598  053E  0CF2               	rrf	___llmod@divisor,f
  2599  053F  0B89               	decfsz	9,f
  2600  0540  2D3B               	goto	u1975
  2601  0541  3001               	movlw	1
  2602  0542  02A1               	subwf	___llmod@counter,f
  2603  0543  1D03               	btfss	3,2
  2604  0544  2D22               	goto	l1616
  2605  0545                     l1624:	
  2606  0545  0879               	movf	___llmod@dividend+3,w
  2607  0546  00F5               	movwf	?___llmod+3
  2608  0547  0878               	movf	___llmod@dividend+2,w
  2609  0548  00F4               	movwf	?___llmod+2
  2610  0549  0877               	movf	___llmod@dividend+1,w
  2611  054A  00F3               	movwf	?___llmod+1
  2612  054B  0876               	movf	___llmod@dividend,w
  2613  054C  00F2               	movwf	?___llmod
  2614  054D  0008               	return
  2615  054E                     __end_of___llmod:	
  2616                           
  2617                           	psect	text6
  2618  04B8                     __ptext6:	
  2619 ;; *************** function ___lldiv *****************
  2620 ;; Defined at:
  2621 ;;		line 6 in file "C:\Program Files\Microchip\xc8\v1.33\sources\common\lldiv.c"
  2622 ;; Parameters:    Size  Location     Type
  2623 ;;  divisor         4    2[COMMON] unsigned long 
  2624 ;;  dividend        4    6[COMMON] unsigned long 
  2625 ;; Auto vars:     Size  Location     Type
  2626 ;;  quotient        4    1[BANK0 ] unsigned long 
  2627 ;;  counter         1    5[BANK0 ] unsigned char 
  2628 ;; Return value:  Size  Location     Type
  2629 ;;                  4    2[COMMON] unsigned long 
  2630 ;; Registers used:
  2631 ;;		wreg, status,2, status,0
  2632 ;; Tracked objects:
  2633 ;;		On entry : 0/0
  2634 ;;		On exit  : 0/0
  2635 ;;		Unchanged: 0/0
  2636 ;; Data sizes:     COMMON   BANK0   BANK1   BANK2   BANK3   BANK4   BANK5   BANK6   BANK7   BANK8   BANK9  BANK10  BANK1
      +1  BANK12
  2637 ;;      Params:         8       0       0       0       0       0       0       0       0       0       0       0       
      +0       0
  2638 ;;      Locals:         0       5       0       0       0       0       0       0       0       0       0       0       
      +0       0
  2639 ;;      Temps:          0       1       0       0       0       0       0       0       0       0       0       0       
      +0       0
  2640 ;;      Totals:         8       6       0       0       0       0       0       0       0       0       0       0       
      +0       0
  2641 ;;Total ram usage:       14 bytes
  2642 ;; Hardware stack levels used:    1
  2643 ;; Hardware stack levels required when called:    1
  2644 ;; This function calls:
  2645 ;;		Nothing
  2646 ;; This function is called by:
  2647 ;;		_ultoa
  2648 ;; This function uses a non-reentrant model
  2649 ;;
  2650                           
  2651                           
  2652                           ;psect for function ___lldiv
  2653  04B8                     ___lldiv:	
  2654                           
  2655                           ;incstack = 0
  2656                           ; Regs used in ___lldiv: [wreg+status,2+status,0]
  2657  04B8  3000               	movlw	0
  2658  04B9  0020               	movlb	0	; select bank0
  2659  04BA  00A4               	movwf	___lldiv@quotient+3
  2660  04BB  3000               	movlw	0
  2661  04BC  00A3               	movwf	___lldiv@quotient+2
  2662  04BD  3000               	movlw	0
  2663  04BE  00A2               	movwf	___lldiv@quotient+1
  2664  04BF  3000               	movlw	0
  2665  04C0  00A1               	movwf	___lldiv@quotient
  2666  04C1  0875               	movf	___lldiv@divisor+3,w
  2667  04C2  0474               	iorwf	___lldiv@divisor+2,w
  2668  04C3  0473               	iorwf	___lldiv@divisor+1,w
  2669  04C4  0472               	iorwf	___lldiv@divisor,w
  2670  04C5  1903               	skipnz
  2671  04C6  2D02               	goto	l1604
  2672  04C7  01A5               	clrf	___lldiv@counter
  2673  04C8  0AA5               	incf	___lldiv@counter,f
  2674  04C9                     l1590:	
  2675  04C9  1BF5               	btfsc	___lldiv@divisor+3,7
  2676  04CA  2CD7               	goto	l1592
  2677  04CB  3001               	movlw	1
  2678  04CC                     u1875:	
  2679  04CC  35F2               	lslf	___lldiv@divisor,f
  2680  04CD  0DF3               	rlf	___lldiv@divisor+1,f
  2681  04CE  0DF4               	rlf	___lldiv@divisor+2,f
  2682  04CF  0DF5               	rlf	___lldiv@divisor+3,f
  2683  04D0  0B89               	decfsz	9,f
  2684  04D1  2CCC               	goto	u1875
  2685  04D2  3001               	movlw	1
  2686  04D3  00A0               	movwf	??___lldiv
  2687  04D4  0820               	movf	??___lldiv,w
  2688  04D5  07A5               	addwf	___lldiv@counter,f
  2689  04D6  2CC9               	goto	l1590
  2690  04D7                     l1592:	
  2691  04D7  3001               	movlw	1
  2692  04D8                     u1895:	
  2693  04D8  35A1               	lslf	___lldiv@quotient,f
  2694  04D9  0DA2               	rlf	___lldiv@quotient+1,f
  2695  04DA  0DA3               	rlf	___lldiv@quotient+2,f
  2696  04DB  0DA4               	rlf	___lldiv@quotient+3,f
  2697  04DC  0B89               	decfsz	9,f
  2698  04DD  2CD8               	goto	u1895
  2699  04DE  0875               	movf	___lldiv@divisor+3,w
  2700  04DF  0279               	subwf	___lldiv@dividend+3,w
  2701  04E0  1D03               	skipz
  2702  04E1  2CEC               	goto	u1905
  2703  04E2  0874               	movf	___lldiv@divisor+2,w
  2704  04E3  0278               	subwf	___lldiv@dividend+2,w
  2705  04E4  1D03               	skipz
  2706  04E5  2CEC               	goto	u1905
  2707  04E6  0873               	movf	___lldiv@divisor+1,w
  2708  04E7  0277               	subwf	___lldiv@dividend+1,w
  2709  04E8  1D03               	skipz
  2710  04E9  2CEC               	goto	u1905
  2711  04EA  0872               	movf	___lldiv@divisor,w
  2712  04EB  0276               	subwf	___lldiv@dividend,w
  2713  04EC                     u1905:	
  2714  04EC  1C03               	skipc
  2715  04ED  2CF7               	goto	l1600
  2716  04EE  0872               	movf	___lldiv@divisor,w
  2717  04EF  02F6               	subwf	___lldiv@dividend,f
  2718  04F0  0873               	movf	___lldiv@divisor+1,w
  2719  04F1  3BF7               	subwfb	___lldiv@dividend+1,f
  2720  04F2  0874               	movf	___lldiv@divisor+2,w
  2721  04F3  3BF8               	subwfb	___lldiv@dividend+2,f
  2722  04F4  0875               	movf	___lldiv@divisor+3,w
  2723  04F5  3BF9               	subwfb	___lldiv@dividend+3,f
  2724  04F6  1421               	bsf	___lldiv@quotient,0
  2725  04F7                     l1600:	
  2726  04F7  3001               	movlw	1
  2727  04F8                     u1915:	
  2728  04F8  36F5               	lsrf	___lldiv@divisor+3,f
  2729  04F9  0CF4               	rrf	___lldiv@divisor+2,f
  2730  04FA  0CF3               	rrf	___lldiv@divisor+1,f
  2731  04FB  0CF2               	rrf	___lldiv@divisor,f
  2732  04FC  0B89               	decfsz	9,f
  2733  04FD  2CF8               	goto	u1915
  2734  04FE  3001               	movlw	1
  2735  04FF  02A5               	subwf	___lldiv@counter,f
  2736  0500  1D03               	btfss	3,2
  2737  0501  2CD7               	goto	l1592
  2738  0502                     l1604:	
  2739  0502  0824               	movf	___lldiv@quotient+3,w
  2740  0503  00F5               	movwf	?___lldiv+3
  2741  0504  0823               	movf	___lldiv@quotient+2,w
  2742  0505  00F4               	movwf	?___lldiv+2
  2743  0506  0822               	movf	___lldiv@quotient+1,w
  2744  0507  00F3               	movwf	?___lldiv+1
  2745  0508  0821               	movf	___lldiv@quotient,w
  2746  0509  00F2               	movwf	?___lldiv
  2747  050A  0008               	return
  2748  050B                     __end_of___lldiv:	
  2749                           
  2750                           	psect	text7
  2751  066C                     __ptext7:	
  2752 ;; *************** function _initPD3535 *****************
  2753 ;; Defined at:
  2754 ;;		line 52 in file "PD3535.c"
  2755 ;; Parameters:    Size  Location     Type
  2756 ;;  modo            1    wreg     unsigned char 
  2757 ;; Auto vars:     Size  Location     Type
  2758 ;;  modo            1    7[COMMON] unsigned char 
  2759 ;;  dato            2    8[COMMON] struct .
  2760 ;; Return value:  Size  Location     Type
  2761 ;;		None               void
  2762 ;; Registers used:
  2763 ;;		wreg, status,2, status,0, pclath, cstack
  2764 ;; Tracked objects:
  2765 ;;		On entry : 0/0
  2766 ;;		On exit  : 0/0
  2767 ;;		Unchanged: 0/0
  2768 ;; Data sizes:     COMMON   BANK0   BANK1   BANK2   BANK3   BANK4   BANK5   BANK6   BANK7   BANK8   BANK9  BANK10  BANK1
      +1  BANK12
  2769 ;;      Params:         0       0       0       0       0       0       0       0       0       0       0       0       
      +0       0
  2770 ;;      Locals:         3       0       0       0       0       0       0       0       0       0       0       0       
      +0       0
  2771 ;;      Temps:          1       0       0       0       0       0       0       0       0       0       0       0       
      +0       0
  2772 ;;      Totals:         4       0       0       0       0       0       0       0       0       0       0       0       
      +0       0
  2773 ;;Total ram usage:        4 bytes
  2774 ;; Hardware stack levels used:    1
  2775 ;; Hardware stack levels required when called:    2
  2776 ;; This function calls:
  2777 ;;		_snd4094
  2778 ;; This function is called by:
  2779 ;;		_main
  2780 ;; This function uses a non-reentrant model
  2781 ;;
  2782                           
  2783                           
  2784                           ;psect for function _initPD3535
  2785  066C                     _initPD3535:	
  2786                           
  2787                           ;incstack = 0
  2788                           ; Regs used in _initPD3535: [wreg+status,2+status,0+pclath+cstack]
  2789                           ;initPD3535@modo stored from wreg
  2790  066C  00F7               	movwf	initPD3535@modo
  2791                           
  2792                           ;PD3535.c: 53: WORD_VAL dato;
  2793                           ;PD3535.c: 55: TRISBbits.TRISB4 = TRISBbits.TRISB5 = TRISBbits.TRISB6 = 0;
  2794  066D  0021               	movlb	1	; select bank1
  2795  066E  130D               	bcf	13,6	;volatile
  2796  066F  128D               	bcf	13,5	;volatile
  2797  0670  120D               	bcf	13,4	;volatile
  2798                           
  2799                           ;PD3535.c: 57: dato.v[0] = modo;
  2800  0671  0877               	movf	initPD3535@modo,w
  2801  0672  00F6               	movwf	??_initPD3535
  2802  0673  0876               	movf	??_initPD3535,w
  2803  0674  00F8               	movwf	initPD3535@dato
  2804                           
  2805                           ;PD3535.c: 58: dato.v[1] = 0;
  2806  0675  01F9               	clrf	initPD3535@dato+1
  2807                           
  2808                           ;PD3535.c: 59: snd4094(dato);
  2809  0676  0879               	movf	initPD3535@dato+1,w
  2810  0677  01F3               	clrf	snd4094@dato+1
  2811  0678  07F3               	addwf	snd4094@dato+1,f
  2812  0679  0878               	movf	initPD3535@dato,w
  2813  067A  01F2               	clrf	snd4094@dato
  2814  067B  07F2               	addwf	snd4094@dato,f
  2815  067C  3185  25F0         	fcall	_snd4094
  2816  067E  0008               	return
  2817  067F                     __end_of_initPD3535:	
  2818                           
  2819                           	psect	text8
  2820  05F0                     __ptext8:	
  2821 ;; *************** function _snd4094 *****************
  2822 ;; Defined at:
  2823 ;;		line 16 in file "PD3535.c"
  2824 ;; Parameters:    Size  Location     Type
  2825 ;;  dato            2    2[COMMON] struct .
  2826 ;; Auto vars:     Size  Location     Type
  2827 ;;  i               1    5[COMMON] unsigned char 
  2828 ;; Return value:  Size  Location     Type
  2829 ;;		None               void
  2830 ;; Registers used:
  2831 ;;		wreg, status,2, status,0
  2832 ;; Tracked objects:
  2833 ;;		On entry : 0/0
  2834 ;;		On exit  : 0/0
  2835 ;;		Unchanged: 0/0
  2836 ;; Data sizes:     COMMON   BANK0   BANK1   BANK2   BANK3   BANK4   BANK5   BANK6   BANK7   BANK8   BANK9  BANK10  BANK1
      +1  BANK12
  2837 ;;      Params:         2       0       0       0       0       0       0       0       0       0       0       0       
      +0       0
  2838 ;;      Locals:         1       0       0       0       0       0       0       0       0       0       0       0       
      +0       0
  2839 ;;      Temps:          1       0       0       0       0       0       0       0       0       0       0       0       
      +0       0
  2840 ;;      Totals:         4       0       0       0       0       0       0       0       0       0       0       0       
      +0       0
  2841 ;;Total ram usage:        4 bytes
  2842 ;; Hardware stack levels used:    1
  2843 ;; Hardware stack levels required when called:    1
  2844 ;; This function calls:
  2845 ;;		Nothing
  2846 ;; This function is called by:
  2847 ;;		_initPD3535
  2848 ;;		_disChar
  2849 ;;		_disCharPos
  2850 ;; This function uses a non-reentrant model
  2851 ;;
  2852                           
  2853                           
  2854                           ;psect for function _snd4094
  2855  05F0                     _snd4094:	
  2856                           
  2857                           ;PD3535.c: 17: BYTE i = 16;
  2858                           
  2859                           ;incstack = 0
  2860                           ; Regs used in _snd4094: [wreg+status,2+status,0]
  2861  05F0  3010               	movlw	16
  2862  05F1  00F4               	movwf	??_snd4094
  2863  05F2  0874               	movf	??_snd4094,w
  2864  05F3  00F5               	movwf	snd4094@i
  2865                           
  2866                           ;PD3535.c: 21: LATBbits.LATB5 = 0;
  2867  05F4  0022               	movlb	2	; select bank2
  2868  05F5  128D               	bcf	13,5	;volatile
  2869                           
  2870                           ;PD3535.c: 23: for (i = 16; i > 0; i--) {
  2871  05F6  3010               	movlw	16
  2872  05F7  00F4               	movwf	??_snd4094
  2873  05F8  0874               	movf	??_snd4094,w
  2874  05F9  00F5               	movwf	snd4094@i
  2875  05FA  08F5               	movf	snd4094@i,f
  2876  05FB  1903               	btfsc	3,2
  2877  05FC  2E13               	goto	l196
  2878  05FD                     l195:	
  2879                           
  2880                           ;PD3535.c: 24: if ((dato.Val & 0x8000) == 0)
  2881  05FD  1BF3               	btfsc	snd4094@dato+1,7
  2882  05FE  2E01               	goto	l197
  2883                           
  2884                           ;PD3535.c: 27: LATBbits.LATB4 = 0;
  2885  05FF  120D               	bcf	13,4	;volatile
  2886  0600  2E02               	goto	l1572
  2887  0601                     l197:	
  2888                           
  2889                           ;PD3535.c: 28: else
  2890                           ;PD3535.c: 30: LATBbits.LATB4 = 1;
  2891  0601  160D               	bsf	13,4	;volatile
  2892  0602                     l1572:	
  2893                           
  2894                           ;PD3535.c: 33: dato.Val <<= 1;
  2895  0602  3001               	movlw	1
  2896  0603                     u1845:	
  2897  0603  35F2               	lslf	snd4094@dato,f
  2898  0604  0DF3               	rlf	snd4094@dato+1,f
  2899  0605  0B89               	decfsz	9,f
  2900  0606  2E03               	goto	u1845
  2901                           
  2902                           ;PD3535.c: 35: LATBbits.LATB5 = 1;
  2903  0607  168D               	bsf	13,5	;volatile
  2904                           
  2905                           ;PD3535.c: 36: _delay((unsigned long)((4)*(16000000/4000000.0)));
  2906  0608  3005               	movlw	5
  2907  0609  00F4               	movwf	??_snd4094
  2908  060A                     u2677:	
  2909  060A  0BF4               	decfsz	??_snd4094,f
  2910  060B  2E0A               	goto	u2677
  2911                           
  2912                           ;PD3535.c: 38: LATBbits.LATB5 = 0;
  2913  060C  0022               	movlb	2	; select bank2
  2914  060D  128D               	bcf	13,5	;volatile
  2915  060E  3001               	movlw	1
  2916  060F  02F5               	subwf	snd4094@i,f
  2917  0610  08F5               	movf	snd4094@i,f
  2918  0611  1D03               	skipz
  2919  0612  2DFD               	goto	l195
  2920  0613                     l196:	
  2921                           
  2922                           ;PD3535.c: 40: }
  2923                           ;PD3535.c: 44: LATBbits.LATB6 = 0;
  2924  0613  130D               	bcf	13,6	;volatile
  2925                           
  2926                           ;PD3535.c: 45: _delay((unsigned long)((8)*(16000000/4000000.0)));
  2927  0614  300A               	movlw	10
  2928  0615  00F4               	movwf	??_snd4094
  2929  0616                     u2687:	
  2930  0616  0BF4               	decfsz	??_snd4094,f
  2931  0617  2E16               	goto	u2687
  2932  0618  0000               	nop
  2933                           
  2934                           ;PD3535.c: 47: LATBbits.LATB6 = 1;
  2935  0619  0022               	movlb	2	; select bank2
  2936  061A  170D               	bsf	13,6	;volatile
  2937  061B  0008               	return
  2938  061C                     __end_of_snd4094:	
  2939                           
  2940                           	psect	text9
  2941  058E                     __ptext9:	
  2942 ;; *************** function ___lmul *****************
  2943 ;; Defined at:
  2944 ;;		line 15 in file "C:\Program Files\Microchip\xc8\v1.33\sources\common\Umul32.c"
  2945 ;; Parameters:    Size  Location     Type
  2946 ;;  multiplier      4    2[COMMON] unsigned long 
  2947 ;;  multiplicand    4    6[COMMON] unsigned long 
  2948 ;; Auto vars:     Size  Location     Type
  2949 ;;  product         4    0[BANK0 ] unsigned long 
  2950 ;; Return value:  Size  Location     Type
  2951 ;;                  4    2[COMMON] unsigned long 
  2952 ;; Registers used:
  2953 ;;		wreg, status,2, status,0
  2954 ;; Tracked objects:
  2955 ;;		On entry : 0/0
  2956 ;;		On exit  : 0/0
  2957 ;;		Unchanged: 0/0
  2958 ;; Data sizes:     COMMON   BANK0   BANK1   BANK2   BANK3   BANK4   BANK5   BANK6   BANK7   BANK8   BANK9  BANK10  BANK1
      +1  BANK12
  2959 ;;      Params:         8       0       0       0       0       0       0       0       0       0       0       0       
      +0       0
  2960 ;;      Locals:         0       4       0       0       0       0       0       0       0       0       0       0       
      +0       0
  2961 ;;      Temps:          0       0       0       0       0       0       0       0       0       0       0       0       
      +0       0
  2962 ;;      Totals:         8       4       0       0       0       0       0       0       0       0       0       0       
      +0       0
  2963 ;;Total ram usage:       12 bytes
  2964 ;; Hardware stack levels used:    1
  2965 ;; Hardware stack levels required when called:    1
  2966 ;; This function calls:
  2967 ;;		Nothing
  2968 ;; This function is called by:
  2969 ;;		_main
  2970 ;; This function uses a non-reentrant model
  2971 ;;
  2972                           
  2973                           
  2974                           ;psect for function ___lmul
  2975  058E                     ___lmul:	
  2976                           
  2977                           ;incstack = 0
  2978                           ; Regs used in ___lmul: [wreg+status,2+status,0]
  2979  058E  3000               	movlw	0
  2980  058F  0020               	movlb	0	; select bank0
  2981  0590  00A3               	movwf	___lmul@product+3
  2982  0591  3000               	movlw	0
  2983  0592  00A2               	movwf	___lmul@product+2
  2984  0593  3000               	movlw	0
  2985  0594  00A1               	movwf	___lmul@product+1
  2986  0595  3000               	movlw	0
  2987  0596  00A0               	movwf	___lmul@product
  2988  0597                     l1736:	
  2989  0597  1C72               	btfss	___lmul@multiplier,0
  2990  0598  2DA2               	goto	l1740
  2991  0599  0876               	movf	___lmul@multiplicand,w
  2992  059A  0020               	movlb	0	; select bank0
  2993  059B  07A0               	addwf	___lmul@product,f
  2994  059C  0877               	movf	___lmul@multiplicand+1,w
  2995  059D  3DA1               	addwfc	___lmul@product+1,f
  2996  059E  0878               	movf	___lmul@multiplicand+2,w
  2997  059F  3DA2               	addwfc	___lmul@product+2,f
  2998  05A0  0879               	movf	___lmul@multiplicand+3,w
  2999  05A1  3DA3               	addwfc	___lmul@product+3,f
  3000  05A2                     l1740:	
  3001  05A2  3001               	movlw	1
  3002  05A3                     u2205:	
  3003  05A3  35F6               	lslf	___lmul@multiplicand,f
  3004  05A4  0DF7               	rlf	___lmul@multiplicand+1,f
  3005  05A5  0DF8               	rlf	___lmul@multiplicand+2,f
  3006  05A6  0DF9               	rlf	___lmul@multiplicand+3,f
  3007  05A7  0B89               	decfsz	9,f
  3008  05A8  2DA3               	goto	u2205
  3009  05A9  3001               	movlw	1
  3010  05AA                     u2215:	
  3011  05AA  36F5               	lsrf	___lmul@multiplier+3,f
  3012  05AB  0CF4               	rrf	___lmul@multiplier+2,f
  3013  05AC  0CF3               	rrf	___lmul@multiplier+1,f
  3014  05AD  0CF2               	rrf	___lmul@multiplier,f
  3015  05AE  0B89               	decfsz	9,f
  3016  05AF  2DAA               	goto	u2215
  3017  05B0  0875               	movf	___lmul@multiplier+3,w
  3018  05B1  0474               	iorwf	___lmul@multiplier+2,w
  3019  05B2  0473               	iorwf	___lmul@multiplier+1,w
  3020  05B3  0472               	iorwf	___lmul@multiplier,w
  3021  05B4  1D03               	skipz
  3022  05B5  2D97               	goto	l1736
  3023  05B6  0020               	movlb	0	; select bank0
  3024  05B7  0823               	movf	___lmul@product+3,w
  3025  05B8  00F5               	movwf	?___lmul+3
  3026  05B9  0822               	movf	___lmul@product+2,w
  3027  05BA  00F4               	movwf	?___lmul+2
  3028  05BB  0821               	movf	___lmul@product+1,w
  3029  05BC  00F3               	movwf	?___lmul+1
  3030  05BD  0820               	movf	___lmul@product,w
  3031  05BE  00F2               	movwf	?___lmul
  3032  05BF  0008               	return
  3033  05C0                     __end_of___lmul:	
  3034                           
  3035                           	psect	text10
  3036  061C                     __ptext10:	
  3037 ;; *************** function ___lltoft *****************
  3038 ;; Defined at:
  3039 ;;		line 35 in file "C:\Program Files\Microchip\xc8\v1.33\sources\common\lltoft.c"
  3040 ;; Parameters:    Size  Location     Type
  3041 ;;  c               4    0[BANK0 ] unsigned long 
  3042 ;; Auto vars:     Size  Location     Type
  3043 ;;  exp             1    5[BANK0 ] unsigned char 
  3044 ;; Return value:  Size  Location     Type
  3045 ;;                  3    0[BANK0 ] float 
  3046 ;; Registers used:
  3047 ;;		wreg, status,2, status,0, pclath, cstack
  3048 ;; Tracked objects:
  3049 ;;		On entry : 0/0
  3050 ;;		On exit  : 0/0
  3051 ;;		Unchanged: 0/0
  3052 ;; Data sizes:     COMMON   BANK0   BANK1   BANK2   BANK3   BANK4   BANK5   BANK6   BANK7   BANK8   BANK9  BANK10  BANK1
      +1  BANK12
  3053 ;;      Params:         0       4       0       0       0       0       0       0       0       0       0       0       
      +0       0
  3054 ;;      Locals:         0       1       0       0       0       0       0       0       0       0       0       0       
      +0       0
  3055 ;;      Temps:          0       1       0       0       0       0       0       0       0       0       0       0       
      +0       0
  3056 ;;      Totals:         0       6       0       0       0       0       0       0       0       0       0       0       
      +0       0
  3057 ;;Total ram usage:        6 bytes
  3058 ;; Hardware stack levels used:    1
  3059 ;; Hardware stack levels required when called:    2
  3060 ;; This function calls:
  3061 ;;		___ftpack
  3062 ;; This function is called by:
  3063 ;;		_main
  3064 ;; This function uses a non-reentrant model
  3065 ;;
  3066                           
  3067                           
  3068                           ;psect for function ___lltoft
  3069  061C                     ___lltoft:	
  3070                           
  3071                           ;incstack = 0
  3072                           ; Regs used in ___lltoft: [wreg+status,2+status,0+pclath+cstack]
  3073  061C  308E               	movlw	142
  3074  061D  0020               	movlb	0	; select bank0
  3075  061E  00A4               	movwf	??___lltoft
  3076  061F  0824               	movf	??___lltoft,w
  3077  0620  00A5               	movwf	___lltoft@exp
  3078  0621                     l1888:	
  3079  0621  30FF               	movlw	255
  3080  0622  0523               	andwf	___lltoft@c+3,w
  3081  0623  1903               	btfsc	3,2
  3082  0624  2E31               	goto	l1890
  3083  0625  3001               	movlw	1
  3084  0626                     u2535:	
  3085  0626  36A3               	lsrf	___lltoft@c+3,f
  3086  0627  0CA2               	rrf	___lltoft@c+2,f
  3087  0628  0CA1               	rrf	___lltoft@c+1,f
  3088  0629  0CA0               	rrf	___lltoft@c,f
  3089  062A  0B89               	decfsz	9,f
  3090  062B  2E26               	goto	u2535
  3091  062C  3001               	movlw	1
  3092  062D  00A4               	movwf	??___lltoft
  3093  062E  0824               	movf	??___lltoft,w
  3094  062F  07A5               	addwf	___lltoft@exp,f
  3095  0630  2E21               	goto	l1888
  3096  0631                     l1890:	
  3097  0631  0820               	movf	___lltoft@c,w
  3098  0632  00F2               	movwf	___ftpack@arg
  3099  0633  0821               	movf	___lltoft@c+1,w
  3100  0634  00F3               	movwf	___ftpack@arg+1
  3101  0635  0822               	movf	___lltoft@c+2,w
  3102  0636  00F4               	movwf	___ftpack@arg+2
  3103  0637  0825               	movf	___lltoft@exp,w
  3104  0638  00A4               	movwf	??___lltoft
  3105  0639  0824               	movf	??___lltoft,w
  3106  063A  00F5               	movwf	___ftpack@exp
  3107  063B  01F6               	clrf	___ftpack@sign
  3108  063C  3184  2458         	fcall	___ftpack
  3109  063E  0872               	movf	?___ftpack,w
  3110  063F  0020               	movlb	0	; select bank0
  3111  0640  00A0               	movwf	?___lltoft
  3112  0641  0873               	movf	?___ftpack+1,w
  3113  0642  00A1               	movwf	?___lltoft+1
  3114  0643  0874               	movf	?___ftpack+2,w
  3115  0644  00A2               	movwf	?___lltoft+2
  3116  0645  0008               	return
  3117  0646                     __end_of___lltoft:	
  3118                           
  3119                           	psect	text11
  3120  03D1                     __ptext11:	
  3121 ;; *************** function ___fttol *****************
  3122 ;; Defined at:
  3123 ;;		line 44 in file "C:\Program Files\Microchip\xc8\v1.33\sources\common\fttol.c"
  3124 ;; Parameters:    Size  Location     Type
  3125 ;;  f1              3   38[BANK0 ] float 
  3126 ;; Auto vars:     Size  Location     Type
  3127 ;;  lval            4   47[BANK0 ] unsigned long 
  3128 ;;  exp1            1   51[BANK0 ] unsigned char 
  3129 ;;  sign1           1   46[BANK0 ] unsigned char 
  3130 ;; Return value:  Size  Location     Type
  3131 ;;                  4   38[BANK0 ] long 
  3132 ;; Registers used:
  3133 ;;		wreg, status,2, status,0
  3134 ;; Tracked objects:
  3135 ;;		On entry : 0/0
  3136 ;;		On exit  : 0/0
  3137 ;;		Unchanged: 0/0
  3138 ;; Data sizes:     COMMON   BANK0   BANK1   BANK2   BANK3   BANK4   BANK5   BANK6   BANK7   BANK8   BANK9  BANK10  BANK1
      +1  BANK12
  3139 ;;      Params:         0       4       0       0       0       0       0       0       0       0       0       0       
      +0       0
  3140 ;;      Locals:         0       6       0       0       0       0       0       0       0       0       0       0       
      +0       0
  3141 ;;      Temps:          0       4       0       0       0       0       0       0       0       0       0       0       
      +0       0
  3142 ;;      Totals:         0      14       0       0       0       0       0       0       0       0       0       0       
      +0       0
  3143 ;;Total ram usage:       14 bytes
  3144 ;; Hardware stack levels used:    1
  3145 ;; Hardware stack levels required when called:    1
  3146 ;; This function calls:
  3147 ;;		Nothing
  3148 ;; This function is called by:
  3149 ;;		_main
  3150 ;; This function uses a non-reentrant model
  3151 ;;
  3152                           
  3153                           
  3154                           ;psect for function ___fttol
  3155  03D1                     ___fttol:	
  3156                           
  3157                           ;incstack = 0
  3158                           ; Regs used in ___fttol: [wreg+status,2+status,0]
  3159  03D1  0020               	movlb	0	; select bank0
  3160  03D2  0846               	movf	___fttol@f1,w
  3161  03D3  00CA               	movwf	??___fttol
  3162  03D4  0847               	movf	___fttol@f1+1,w
  3163  03D5  00CB               	movwf	??___fttol+1
  3164  03D6  0848               	movf	___fttol@f1+2,w
  3165  03D7  00CC               	movwf	??___fttol+2
  3166  03D8  1003               	clrc
  3167  03D9  0D4B               	rlf	??___fttol+1,w
  3168  03DA  0D4C               	rlf	??___fttol+2,w
  3169  03DB  00CD               	movwf	??___fttol+3
  3170  03DC  084D               	movf	??___fttol+3,w
  3171  03DD  00D3               	movwf	___fttol@exp1
  3172  03DE  08D3               	movf	___fttol@exp1,f
  3173  03DF  1D03               	skipz
  3174  03E0  2BEA               	goto	l1846
  3175  03E1  3000               	movlw	0
  3176  03E2  00C9               	movwf	?___fttol+3
  3177  03E3  3000               	movlw	0
  3178  03E4  00C8               	movwf	?___fttol+2
  3179  03E5  3000               	movlw	0
  3180  03E6  00C7               	movwf	?___fttol+1
  3181  03E7  3000               	movlw	0
  3182  03E8  00C6               	movwf	?___fttol
  3183  03E9  0008               	return
  3184  03EA                     l1846:	
  3185  03EA  0846               	movf	___fttol@f1,w
  3186  03EB  00CA               	movwf	??___fttol
  3187  03EC  0847               	movf	___fttol@f1+1,w
  3188  03ED  00CB               	movwf	??___fttol+1
  3189  03EE  0848               	movf	___fttol@f1+2,w
  3190  03EF  00CC               	movwf	??___fttol+2
  3191  03F0  3017               	movlw	23
  3192  03F1                     u2445:	
  3193  03F1  36CC               	lsrf	??___fttol+2,f
  3194  03F2  0CCB               	rrf	??___fttol+1,f
  3195  03F3  0CCA               	rrf	??___fttol,f
  3196  03F4  0B89               	decfsz	9,f
  3197  03F5  2BF1               	goto	u2445
  3198  03F6  084A               	movf	??___fttol,w
  3199  03F7  00CD               	movwf	??___fttol+3
  3200  03F8  084D               	movf	??___fttol+3,w
  3201  03F9  00CE               	movwf	___fttol@sign1
  3202  03FA  17C7               	bsf	___fttol@f1+1,7
  3203  03FB  30FF               	movlw	255
  3204  03FC  05C6               	andwf	___fttol@f1,f
  3205  03FD  30FF               	movlw	255
  3206  03FE  05C7               	andwf	___fttol@f1+1,f
  3207  03FF  3000               	movlw	0
  3208  0400  05C8               	andwf	___fttol@f1+2,f
  3209  0401  0846               	movf	___fttol@f1,w
  3210  0402  00CF               	movwf	___fttol@lval
  3211  0403  0847               	movf	___fttol@f1+1,w
  3212  0404  00D0               	movwf	___fttol@lval+1
  3213  0405  0848               	movf	___fttol@f1+2,w
  3214  0406  00D1               	movwf	___fttol@lval+2
  3215  0407  01D2               	clrf	___fttol@lval+3
  3216  0408  308E               	movlw	142
  3217  0409  02D3               	subwf	___fttol@exp1,f
  3218  040A  1FD3               	btfss	___fttol@exp1,7
  3219  040B  2C28               	goto	l1866
  3220  040C  0853               	movf	___fttol@exp1,w
  3221  040D  3A80               	xorlw	128
  3222  040E  3E8F               	addlw	143
  3223  040F  1803               	skipnc
  3224  0410  2C1A               	goto	l1864
  3225  0411  3000               	movlw	0
  3226  0412  00C9               	movwf	?___fttol+3
  3227  0413  3000               	movlw	0
  3228  0414  00C8               	movwf	?___fttol+2
  3229  0415  3000               	movlw	0
  3230  0416  00C7               	movwf	?___fttol+1
  3231  0417  3000               	movlw	0
  3232  0418  00C6               	movwf	?___fttol
  3233  0419  0008               	return
  3234  041A                     l1864:	
  3235  041A  3001               	movlw	1
  3236  041B                     u2475:	
  3237  041B  36D2               	lsrf	___fttol@lval+3,f
  3238  041C  0CD1               	rrf	___fttol@lval+2,f
  3239  041D  0CD0               	rrf	___fttol@lval+1,f
  3240  041E  0CCF               	rrf	___fttol@lval,f
  3241  041F  0B89               	decfsz	9,f
  3242  0420  2C1B               	goto	u2475
  3243  0421  3001               	movlw	1
  3244  0422  00CA               	movwf	??___fttol
  3245  0423  084A               	movf	??___fttol,w
  3246  0424  07D3               	addwf	___fttol@exp1,f
  3247  0425  1903               	btfsc	3,2
  3248  0426  2C41               	goto	l1876
  3249  0427  2C1A               	goto	l1864
  3250  0428                     l1866:	
  3251  0428  3018               	movlw	24
  3252  0429  0253               	subwf	___fttol@exp1,w
  3253  042A  1C03               	skipc
  3254  042B  2C3E               	goto	l1874
  3255  042C  3000               	movlw	0
  3256  042D  00C9               	movwf	?___fttol+3
  3257  042E  3000               	movlw	0
  3258  042F  00C8               	movwf	?___fttol+2
  3259  0430  3000               	movlw	0
  3260  0431  00C7               	movwf	?___fttol+1
  3261  0432  3000               	movlw	0
  3262  0433  00C6               	movwf	?___fttol
  3263  0434  0008               	return
  3264  0435                     l1872:	
  3265  0435  3001               	movlw	1
  3266  0436                     u2505:	
  3267  0436  35CF               	lslf	___fttol@lval,f
  3268  0437  0DD0               	rlf	___fttol@lval+1,f
  3269  0438  0DD1               	rlf	___fttol@lval+2,f
  3270  0439  0DD2               	rlf	___fttol@lval+3,f
  3271  043A  0B89               	decfsz	9,f
  3272  043B  2C36               	goto	u2505
  3273  043C  3001               	movlw	1
  3274  043D  02D3               	subwf	___fttol@exp1,f
  3275  043E                     l1874:	
  3276  043E  08D3               	movf	___fttol@exp1,f
  3277  043F  1D03               	skipz
  3278  0440  2C35               	goto	l1872
  3279  0441                     l1876:	
  3280  0441  084E               	movf	___fttol@sign1,w
  3281  0442  1903               	btfsc	3,2
  3282  0443  2C4F               	goto	l1880
  3283  0444  09CF               	comf	___fttol@lval,f
  3284  0445  09D0               	comf	___fttol@lval+1,f
  3285  0446  09D1               	comf	___fttol@lval+2,f
  3286  0447  09D2               	comf	___fttol@lval+3,f
  3287  0448  0ACF               	incf	___fttol@lval,f
  3288  0449  1903               	skipnz
  3289  044A  0AD0               	incf	___fttol@lval+1,f
  3290  044B  1903               	skipnz
  3291  044C  0AD1               	incf	___fttol@lval+2,f
  3292  044D  1903               	skipnz
  3293  044E  0AD2               	incf	___fttol@lval+3,f
  3294  044F                     l1880:	
  3295  044F  0852               	movf	___fttol@lval+3,w
  3296  0450  00C9               	movwf	?___fttol+3
  3297  0451  0851               	movf	___fttol@lval+2,w
  3298  0452  00C8               	movwf	?___fttol+2
  3299  0453  0850               	movf	___fttol@lval+1,w
  3300  0454  00C7               	movwf	?___fttol+1
  3301  0455  084F               	movf	___fttol@lval,w
  3302  0456  00C6               	movwf	?___fttol
  3303  0457  0008               	return
  3304  0458                     __end_of___fttol:	
  3305                           
  3306                           	psect	text12
  3307  01EB                     __ptext12:	
  3308 ;; *************** function ___ftmul *****************
  3309 ;; Defined at:
  3310 ;;		line 62 in file "C:\Program Files\Microchip\xc8\v1.33\sources\common\ftmul.c"
  3311 ;; Parameters:    Size  Location     Type
  3312 ;;  f1              3   22[BANK0 ] float 
  3313 ;;  f2              3   25[BANK0 ] float 
  3314 ;; Auto vars:     Size  Location     Type
  3315 ;;  f3_as_produc    3   33[BANK0 ] unsigned um
  3316 ;;  sign            1   37[BANK0 ] unsigned char 
  3317 ;;  cntr            1   36[BANK0 ] unsigned char 
  3318 ;;  exp             1   32[BANK0 ] unsigned char 
  3319 ;; Return value:  Size  Location     Type
  3320 ;;                  3   22[BANK0 ] float 
  3321 ;; Registers used:
  3322 ;;		wreg, status,2, status,0, pclath, cstack
  3323 ;; Tracked objects:
  3324 ;;		On entry : 0/0
  3325 ;;		On exit  : 0/0
  3326 ;;		Unchanged: 0/0
  3327 ;; Data sizes:     COMMON   BANK0   BANK1   BANK2   BANK3   BANK4   BANK5   BANK6   BANK7   BANK8   BANK9  BANK10  BANK1
      +1  BANK12
  3328 ;;      Params:         0       6       0       0       0       0       0       0       0       0       0       0       
      +0       0
  3329 ;;      Locals:         0       6       0       0       0       0       0       0       0       0       0       0       
      +0       0
  3330 ;;      Temps:          0       4       0       0       0       0       0       0       0       0       0       0       
      +0       0
  3331 ;;      Totals:         0      16       0       0       0       0       0       0       0       0       0       0       
      +0       0
  3332 ;;Total ram usage:       16 bytes
  3333 ;; Hardware stack levels used:    1
  3334 ;; Hardware stack levels required when called:    2
  3335 ;; This function calls:
  3336 ;;		___ftpack
  3337 ;; This function is called by:
  3338 ;;		_main
  3339 ;; This function uses a non-reentrant model
  3340 ;;
  3341                           
  3342                           
  3343                           ;psect for function ___ftmul
  3344  01EB                     ___ftmul:	
  3345                           
  3346                           ;incstack = 0
  3347                           ; Regs used in ___ftmul: [wreg+status,2+status,0+pclath+cstack]
  3348  01EB  0020               	movlb	0	; select bank0
  3349  01EC  0836               	movf	___ftmul@f1,w
  3350  01ED  00BC               	movwf	??___ftmul
  3351  01EE  0837               	movf	___ftmul@f1+1,w
  3352  01EF  00BD               	movwf	??___ftmul+1
  3353  01F0  0838               	movf	___ftmul@f1+2,w
  3354  01F1  00BE               	movwf	??___ftmul+2
  3355  01F2  1003               	clrc
  3356  01F3  0D3D               	rlf	??___ftmul+1,w
  3357  01F4  0D3E               	rlf	??___ftmul+2,w
  3358  01F5  00BF               	movwf	??___ftmul+3
  3359  01F6  083F               	movf	??___ftmul+3,w
  3360  01F7  00C0               	movwf	___ftmul@exp
  3361  01F8  08C0               	movf	___ftmul@exp,f
  3362  01F9  1D03               	skipz
  3363  01FA  2A02               	goto	l1796
  3364  01FB  3000               	movlw	0
  3365  01FC  00B6               	movwf	?___ftmul
  3366  01FD  3000               	movlw	0
  3367  01FE  00B7               	movwf	?___ftmul+1
  3368  01FF  3000               	movlw	0
  3369  0200  00B8               	movwf	?___ftmul+2
  3370  0201  0008               	return
  3371  0202                     l1796:	
  3372  0202  0839               	movf	___ftmul@f2,w
  3373  0203  00BC               	movwf	??___ftmul
  3374  0204  083A               	movf	___ftmul@f2+1,w
  3375  0205  00BD               	movwf	??___ftmul+1
  3376  0206  083B               	movf	___ftmul@f2+2,w
  3377  0207  00BE               	movwf	??___ftmul+2
  3378  0208  1003               	clrc
  3379  0209  0D3D               	rlf	??___ftmul+1,w
  3380  020A  0D3E               	rlf	??___ftmul+2,w
  3381  020B  00BF               	movwf	??___ftmul+3
  3382  020C  083F               	movf	??___ftmul+3,w
  3383  020D  00C5               	movwf	___ftmul@sign
  3384  020E  08C5               	movf	___ftmul@sign,f
  3385  020F  1D03               	skipz
  3386  0210  2A18               	goto	l1802
  3387  0211  3000               	movlw	0
  3388  0212  00B6               	movwf	?___ftmul
  3389  0213  3000               	movlw	0
  3390  0214  00B7               	movwf	?___ftmul+1
  3391  0215  3000               	movlw	0
  3392  0216  00B8               	movwf	?___ftmul+2
  3393  0217  0008               	return
  3394  0218                     l1802:	
  3395  0218  0845               	movf	___ftmul@sign,w
  3396  0219  3E7B               	addlw	123
  3397  021A  00BC               	movwf	??___ftmul
  3398  021B  083C               	movf	??___ftmul,w
  3399  021C  07C0               	addwf	___ftmul@exp,f
  3400  021D  0836               	movf	___ftmul@f1,w
  3401  021E  00BC               	movwf	??___ftmul
  3402  021F  0837               	movf	___ftmul@f1+1,w
  3403  0220  00BD               	movwf	??___ftmul+1
  3404  0221  0838               	movf	___ftmul@f1+2,w
  3405  0222  00BE               	movwf	??___ftmul+2
  3406  0223  3010               	movlw	16
  3407  0224                     u2335:	
  3408  0224  36BE               	lsrf	??___ftmul+2,f
  3409  0225  0CBD               	rrf	??___ftmul+1,f
  3410  0226  0CBC               	rrf	??___ftmul,f
  3411  0227  0B89               	decfsz	9,f
  3412  0228  2A24               	goto	u2335
  3413  0229  083C               	movf	??___ftmul,w
  3414  022A  00BF               	movwf	??___ftmul+3
  3415  022B  083F               	movf	??___ftmul+3,w
  3416  022C  00C5               	movwf	___ftmul@sign
  3417  022D  0839               	movf	___ftmul@f2,w
  3418  022E  00BC               	movwf	??___ftmul
  3419  022F  083A               	movf	___ftmul@f2+1,w
  3420  0230  00BD               	movwf	??___ftmul+1
  3421  0231  083B               	movf	___ftmul@f2+2,w
  3422  0232  00BE               	movwf	??___ftmul+2
  3423  0233  3010               	movlw	16
  3424  0234                     u2345:	
  3425  0234  36BE               	lsrf	??___ftmul+2,f
  3426  0235  0CBD               	rrf	??___ftmul+1,f
  3427  0236  0CBC               	rrf	??___ftmul,f
  3428  0237  0B89               	decfsz	9,f
  3429  0238  2A34               	goto	u2345
  3430  0239  083C               	movf	??___ftmul,w
  3431  023A  00BF               	movwf	??___ftmul+3
  3432  023B  083F               	movf	??___ftmul+3,w
  3433  023C  06C5               	xorwf	___ftmul@sign,f
  3434  023D  3080               	movlw	128
  3435  023E  00BC               	movwf	??___ftmul
  3436  023F  083C               	movf	??___ftmul,w
  3437  0240  05C5               	andwf	___ftmul@sign,f
  3438  0241  17B7               	bsf	___ftmul@f1+1,7
  3439  0242  17BA               	bsf	___ftmul@f2+1,7
  3440  0243  30FF               	movlw	255
  3441  0244  05B9               	andwf	___ftmul@f2,f
  3442  0245  30FF               	movlw	255
  3443  0246  05BA               	andwf	___ftmul@f2+1,f
  3444  0247  3000               	movlw	0
  3445  0248  05BB               	andwf	___ftmul@f2+2,f
  3446  0249  3000               	movlw	0
  3447  024A  00C1               	movwf	___ftmul@f3_as_product
  3448  024B  3000               	movlw	0
  3449  024C  00C2               	movwf	___ftmul@f3_as_product+1
  3450  024D  3000               	movlw	0
  3451  024E  00C3               	movwf	___ftmul@f3_as_product+2
  3452  024F  3007               	movlw	7
  3453  0250  00BC               	movwf	??___ftmul
  3454  0251  083C               	movf	??___ftmul,w
  3455  0252  00C4               	movwf	___ftmul@cntr
  3456  0253                     l1814:	
  3457  0253  1C36               	btfss	___ftmul@f1,0
  3458  0254  2A5B               	goto	l1818
  3459  0255  0839               	movf	___ftmul@f2,w
  3460  0256  07C1               	addwf	___ftmul@f3_as_product,f
  3461  0257  083A               	movf	___ftmul@f2+1,w
  3462  0258  3DC2               	addwfc	___ftmul@f3_as_product+1,f
  3463  0259  083B               	movf	___ftmul@f2+2,w
  3464  025A  3DC3               	addwfc	___ftmul@f3_as_product+2,f
  3465  025B                     l1818:	
  3466  025B  3001               	movlw	1
  3467  025C                     u2365:	
  3468  025C  36B8               	lsrf	___ftmul@f1+2,f
  3469  025D  0CB7               	rrf	___ftmul@f1+1,f
  3470  025E  0CB6               	rrf	___ftmul@f1,f
  3471  025F  0B89               	decfsz	9,f
  3472  0260  2A5C               	goto	u2365
  3473  0261  3001               	movlw	1
  3474  0262                     u2375:	
  3475  0262  35B9               	lslf	___ftmul@f2,f
  3476  0263  0DBA               	rlf	___ftmul@f2+1,f
  3477  0264  0DBB               	rlf	___ftmul@f2+2,f
  3478  0265  0B89               	decfsz	9,f
  3479  0266  2A62               	goto	u2375
  3480  0267  3001               	movlw	1
  3481  0268  02C4               	subwf	___ftmul@cntr,f
  3482  0269  1D03               	btfss	3,2
  3483  026A  2A53               	goto	l1814
  3484  026B  3009               	movlw	9
  3485  026C  00BC               	movwf	??___ftmul
  3486  026D  083C               	movf	??___ftmul,w
  3487  026E  00C4               	movwf	___ftmul@cntr
  3488  026F                     l1826:	
  3489  026F  1C36               	btfss	___ftmul@f1,0
  3490  0270  2A77               	goto	l1830
  3491  0271  0839               	movf	___ftmul@f2,w
  3492  0272  07C1               	addwf	___ftmul@f3_as_product,f
  3493  0273  083A               	movf	___ftmul@f2+1,w
  3494  0274  3DC2               	addwfc	___ftmul@f3_as_product+1,f
  3495  0275  083B               	movf	___ftmul@f2+2,w
  3496  0276  3DC3               	addwfc	___ftmul@f3_as_product+2,f
  3497  0277                     l1830:	
  3498  0277  3001               	movlw	1
  3499  0278                     u2405:	
  3500  0278  36B8               	lsrf	___ftmul@f1+2,f
  3501  0279  0CB7               	rrf	___ftmul@f1+1,f
  3502  027A  0CB6               	rrf	___ftmul@f1,f
  3503  027B  0B89               	decfsz	9,f
  3504  027C  2A78               	goto	u2405
  3505  027D  3001               	movlw	1
  3506  027E                     u2415:	
  3507  027E  36C3               	lsrf	___ftmul@f3_as_product+2,f
  3508  027F  0CC2               	rrf	___ftmul@f3_as_product+1,f
  3509  0280  0CC1               	rrf	___ftmul@f3_as_product,f
  3510  0281  0B89               	decfsz	9,f
  3511  0282  2A7E               	goto	u2415
  3512  0283  3001               	movlw	1
  3513  0284  02C4               	subwf	___ftmul@cntr,f
  3514  0285  1D03               	btfss	3,2
  3515  0286  2A6F               	goto	l1826
  3516  0287  0841               	movf	___ftmul@f3_as_product,w
  3517  0288  00F2               	movwf	___ftpack@arg
  3518  0289  0842               	movf	___ftmul@f3_as_product+1,w
  3519  028A  00F3               	movwf	___ftpack@arg+1
  3520  028B  0843               	movf	___ftmul@f3_as_product+2,w
  3521  028C  00F4               	movwf	___ftpack@arg+2
  3522  028D  0840               	movf	___ftmul@exp,w
  3523  028E  00BC               	movwf	??___ftmul
  3524  028F  083C               	movf	??___ftmul,w
  3525  0290  00F5               	movwf	___ftpack@exp
  3526  0291  0845               	movf	___ftmul@sign,w
  3527  0292  00BD               	movwf	??___ftmul+1
  3528  0293  083D               	movf	??___ftmul+1,w
  3529  0294  00F6               	movwf	___ftpack@sign
  3530  0295  3184  2458         	fcall	___ftpack
  3531  0297  0872               	movf	?___ftpack,w
  3532  0298  0020               	movlb	0	; select bank0
  3533  0299  00B6               	movwf	?___ftmul
  3534  029A  0873               	movf	?___ftpack+1,w
  3535  029B  00B7               	movwf	?___ftmul+1
  3536  029C  0874               	movf	?___ftpack+2,w
  3537  029D  00B8               	movwf	?___ftmul+2
  3538  029E  0008               	return
  3539  029F                     __end_of___ftmul:	
  3540                           
  3541                           	psect	text13
  3542  029F                     __ptext13:	
  3543 ;; *************** function ___ftdiv *****************
  3544 ;; Defined at:
  3545 ;;		line 49 in file "C:\Program Files\Microchip\xc8\v1.33\sources\pic\ftdiv.c"
  3546 ;; Parameters:    Size  Location     Type
  3547 ;;  f2              3    6[BANK0 ] float 
  3548 ;;  f1              3    9[BANK0 ] float 
  3549 ;; Auto vars:     Size  Location     Type
  3550 ;;  f3              3   17[BANK0 ] float 
  3551 ;;  sign            1   21[BANK0 ] unsigned char 
  3552 ;;  exp             1   20[BANK0 ] unsigned char 
  3553 ;;  cntr            1   16[BANK0 ] unsigned char 
  3554 ;; Return value:  Size  Location     Type
  3555 ;;                  3    6[BANK0 ] float 
  3556 ;; Registers used:
  3557 ;;		wreg, status,2, status,0, pclath, cstack
  3558 ;; Tracked objects:
  3559 ;;		On entry : 0/0
  3560 ;;		On exit  : 0/0
  3561 ;;		Unchanged: 0/0
  3562 ;; Data sizes:     COMMON   BANK0   BANK1   BANK2   BANK3   BANK4   BANK5   BANK6   BANK7   BANK8   BANK9  BANK10  BANK1
      +1  BANK12
  3563 ;;      Params:         0       6       0       0       0       0       0       0       0       0       0       0       
      +0       0
  3564 ;;      Locals:         0       6       0       0       0       0       0       0       0       0       0       0       
      +0       0
  3565 ;;      Temps:          0       4       0       0       0       0       0       0       0       0       0       0       
      +0       0
  3566 ;;      Totals:         0      16       0       0       0       0       0       0       0       0       0       0       
      +0       0
  3567 ;;Total ram usage:       16 bytes
  3568 ;; Hardware stack levels used:    1
  3569 ;; Hardware stack levels required when called:    2
  3570 ;; This function calls:
  3571 ;;		___ftpack
  3572 ;; This function is called by:
  3573 ;;		_main
  3574 ;; This function uses a non-reentrant model
  3575 ;;
  3576                           
  3577                           
  3578                           ;psect for function ___ftdiv
  3579  029F                     ___ftdiv:	
  3580                           
  3581                           ;incstack = 0
  3582                           ; Regs used in ___ftdiv: [wreg+status,2+status,0+pclath+cstack]
  3583  029F  0020               	movlb	0	; select bank0
  3584  02A0  0829               	movf	___ftdiv@f1,w
  3585  02A1  00AC               	movwf	??___ftdiv
  3586  02A2  082A               	movf	___ftdiv@f1+1,w
  3587  02A3  00AD               	movwf	??___ftdiv+1
  3588  02A4  082B               	movf	___ftdiv@f1+2,w
  3589  02A5  00AE               	movwf	??___ftdiv+2
  3590  02A6  1003               	clrc
  3591  02A7  0D2D               	rlf	??___ftdiv+1,w
  3592  02A8  0D2E               	rlf	??___ftdiv+2,w
  3593  02A9  00AF               	movwf	??___ftdiv+3
  3594  02AA  082F               	movf	??___ftdiv+3,w
  3595  02AB  00B4               	movwf	___ftdiv@exp
  3596  02AC  08B4               	movf	___ftdiv@exp,f
  3597  02AD  1D03               	skipz
  3598  02AE  2AB6               	goto	l1754
  3599  02AF  3000               	movlw	0
  3600  02B0  00A6               	movwf	?___ftdiv
  3601  02B1  3000               	movlw	0
  3602  02B2  00A7               	movwf	?___ftdiv+1
  3603  02B3  3000               	movlw	0
  3604  02B4  00A8               	movwf	?___ftdiv+2
  3605  02B5  0008               	return
  3606  02B6                     l1754:	
  3607  02B6  0826               	movf	___ftdiv@f2,w
  3608  02B7  00AC               	movwf	??___ftdiv
  3609  02B8  0827               	movf	___ftdiv@f2+1,w
  3610  02B9  00AD               	movwf	??___ftdiv+1
  3611  02BA  0828               	movf	___ftdiv@f2+2,w
  3612  02BB  00AE               	movwf	??___ftdiv+2
  3613  02BC  1003               	clrc
  3614  02BD  0D2D               	rlf	??___ftdiv+1,w
  3615  02BE  0D2E               	rlf	??___ftdiv+2,w
  3616  02BF  00AF               	movwf	??___ftdiv+3
  3617  02C0  082F               	movf	??___ftdiv+3,w
  3618  02C1  00B5               	movwf	___ftdiv@sign
  3619  02C2  08B5               	movf	___ftdiv@sign,f
  3620  02C3  1D03               	skipz
  3621  02C4  2ACC               	goto	l1760
  3622  02C5  3000               	movlw	0
  3623  02C6  00A6               	movwf	?___ftdiv
  3624  02C7  3000               	movlw	0
  3625  02C8  00A7               	movwf	?___ftdiv+1
  3626  02C9  3000               	movlw	0
  3627  02CA  00A8               	movwf	?___ftdiv+2
  3628  02CB  0008               	return
  3629  02CC                     l1760:	
  3630  02CC  3000               	movlw	0
  3631  02CD  00B1               	movwf	___ftdiv@f3
  3632  02CE  3000               	movlw	0
  3633  02CF  00B2               	movwf	___ftdiv@f3+1
  3634  02D0  3000               	movlw	0
  3635  02D1  00B3               	movwf	___ftdiv@f3+2
  3636  02D2  3089               	movlw	137
  3637  02D3  0735               	addwf	___ftdiv@sign,w
  3638  02D4  00AC               	movwf	??___ftdiv
  3639  02D5  082C               	movf	??___ftdiv,w
  3640  02D6  02B4               	subwf	___ftdiv@exp,f
  3641  02D7  0829               	movf	___ftdiv@f1,w
  3642  02D8  00AC               	movwf	??___ftdiv
  3643  02D9  082A               	movf	___ftdiv@f1+1,w
  3644  02DA  00AD               	movwf	??___ftdiv+1
  3645  02DB  082B               	movf	___ftdiv@f1+2,w
  3646  02DC  00AE               	movwf	??___ftdiv+2
  3647  02DD  3010               	movlw	16
  3648  02DE                     u2255:	
  3649  02DE  36AE               	lsrf	??___ftdiv+2,f
  3650  02DF  0CAD               	rrf	??___ftdiv+1,f
  3651  02E0  0CAC               	rrf	??___ftdiv,f
  3652  02E1  0B89               	decfsz	9,f
  3653  02E2  2ADE               	goto	u2255
  3654  02E3  082C               	movf	??___ftdiv,w
  3655  02E4  00AF               	movwf	??___ftdiv+3
  3656  02E5  082F               	movf	??___ftdiv+3,w
  3657  02E6  00B5               	movwf	___ftdiv@sign
  3658  02E7  0826               	movf	___ftdiv@f2,w
  3659  02E8  00AC               	movwf	??___ftdiv
  3660  02E9  0827               	movf	___ftdiv@f2+1,w
  3661  02EA  00AD               	movwf	??___ftdiv+1
  3662  02EB  0828               	movf	___ftdiv@f2+2,w
  3663  02EC  00AE               	movwf	??___ftdiv+2
  3664  02ED  3010               	movlw	16
  3665  02EE                     u2265:	
  3666  02EE  36AE               	lsrf	??___ftdiv+2,f
  3667  02EF  0CAD               	rrf	??___ftdiv+1,f
  3668  02F0  0CAC               	rrf	??___ftdiv,f
  3669  02F1  0B89               	decfsz	9,f
  3670  02F2  2AEE               	goto	u2265
  3671  02F3  082C               	movf	??___ftdiv,w
  3672  02F4  00AF               	movwf	??___ftdiv+3
  3673  02F5  082F               	movf	??___ftdiv+3,w
  3674  02F6  06B5               	xorwf	___ftdiv@sign,f
  3675  02F7  3080               	movlw	128
  3676  02F8  00AC               	movwf	??___ftdiv
  3677  02F9  082C               	movf	??___ftdiv,w
  3678  02FA  05B5               	andwf	___ftdiv@sign,f
  3679  02FB  17AA               	bsf	___ftdiv@f1+1,7
  3680  02FC  30FF               	movlw	255
  3681  02FD  05A9               	andwf	___ftdiv@f1,f
  3682  02FE  30FF               	movlw	255
  3683  02FF  05AA               	andwf	___ftdiv@f1+1,f
  3684  0300  3000               	movlw	0
  3685  0301  05AB               	andwf	___ftdiv@f1+2,f
  3686  0302  17A7               	bsf	___ftdiv@f2+1,7
  3687  0303  30FF               	movlw	255
  3688  0304  05A6               	andwf	___ftdiv@f2,f
  3689  0305  30FF               	movlw	255
  3690  0306  05A7               	andwf	___ftdiv@f2+1,f
  3691  0307  3000               	movlw	0
  3692  0308  05A8               	andwf	___ftdiv@f2+2,f
  3693  0309  3018               	movlw	24
  3694  030A  00AC               	movwf	??___ftdiv
  3695  030B  082C               	movf	??___ftdiv,w
  3696  030C  00B0               	movwf	___ftdiv@cntr
  3697  030D                     l1774:	
  3698  030D  3001               	movlw	1
  3699  030E                     u2275:	
  3700  030E  35B1               	lslf	___ftdiv@f3,f
  3701  030F  0DB2               	rlf	___ftdiv@f3+1,f
  3702  0310  0DB3               	rlf	___ftdiv@f3+2,f
  3703  0311  0B89               	decfsz	9,f
  3704  0312  2B0E               	goto	u2275
  3705  0313  0828               	movf	___ftdiv@f2+2,w
  3706  0314  022B               	subwf	___ftdiv@f1+2,w
  3707  0315  1D03               	skipz
  3708  0316  2B1D               	goto	u2285
  3709  0317  0827               	movf	___ftdiv@f2+1,w
  3710  0318  022A               	subwf	___ftdiv@f1+1,w
  3711  0319  1D03               	skipz
  3712  031A  2B1D               	goto	u2285
  3713  031B  0826               	movf	___ftdiv@f2,w
  3714  031C  0229               	subwf	___ftdiv@f1,w
  3715  031D                     u2285:	
  3716  031D  1C03               	skipc
  3717  031E  2B26               	goto	l1782
  3718  031F  0826               	movf	___ftdiv@f2,w
  3719  0320  02A9               	subwf	___ftdiv@f1,f
  3720  0321  0827               	movf	___ftdiv@f2+1,w
  3721  0322  3BAA               	subwfb	___ftdiv@f1+1,f
  3722  0323  0828               	movf	___ftdiv@f2+2,w
  3723  0324  3BAB               	subwfb	___ftdiv@f1+2,f
  3724  0325  1431               	bsf	___ftdiv@f3,0
  3725  0326                     l1782:	
  3726  0326  3001               	movlw	1
  3727  0327                     u2295:	
  3728  0327  35A9               	lslf	___ftdiv@f1,f
  3729  0328  0DAA               	rlf	___ftdiv@f1+1,f
  3730  0329  0DAB               	rlf	___ftdiv@f1+2,f
  3731  032A  0B89               	decfsz	9,f
  3732  032B  2B27               	goto	u2295
  3733  032C  3001               	movlw	1
  3734  032D  02B0               	subwf	___ftdiv@cntr,f
  3735  032E  1D03               	btfss	3,2
  3736  032F  2B0D               	goto	l1774
  3737  0330  0831               	movf	___ftdiv@f3,w
  3738  0331  00F2               	movwf	___ftpack@arg
  3739  0332  0832               	movf	___ftdiv@f3+1,w
  3740  0333  00F3               	movwf	___ftpack@arg+1
  3741  0334  0833               	movf	___ftdiv@f3+2,w
  3742  0335  00F4               	movwf	___ftpack@arg+2
  3743  0336  0834               	movf	___ftdiv@exp,w
  3744  0337  00AC               	movwf	??___ftdiv
  3745  0338  082C               	movf	??___ftdiv,w
  3746  0339  00F5               	movwf	___ftpack@exp
  3747  033A  0835               	movf	___ftdiv@sign,w
  3748  033B  00AD               	movwf	??___ftdiv+1
  3749  033C  082D               	movf	??___ftdiv+1,w
  3750  033D  00F6               	movwf	___ftpack@sign
  3751  033E  3184  2458         	fcall	___ftpack
  3752  0340  0872               	movf	?___ftpack,w
  3753  0341  0020               	movlb	0	; select bank0
  3754  0342  00A6               	movwf	?___ftdiv
  3755  0343  0873               	movf	?___ftpack+1,w
  3756  0344  00A7               	movwf	?___ftdiv+1
  3757  0345  0874               	movf	?___ftpack+2,w
  3758  0346  00A8               	movwf	?___ftdiv+2
  3759  0347  0008               	return
  3760  0348                     __end_of___ftdiv:	
  3761                           
  3762                           	psect	text14
  3763  0458                     __ptext14:	
  3764 ;; *************** function ___ftpack *****************
  3765 ;; Defined at:
  3766 ;;		line 62 in file "C:\Program Files\Microchip\xc8\v1.33\sources\common\float.c"
  3767 ;; Parameters:    Size  Location     Type
  3768 ;;  arg             3    2[COMMON] unsigned um
  3769 ;;  exp             1    5[COMMON] unsigned char 
  3770 ;;  sign            1    6[COMMON] unsigned char 
  3771 ;; Auto vars:     Size  Location     Type
  3772 ;;		None
  3773 ;; Return value:  Size  Location     Type
  3774 ;;                  3    2[COMMON] float 
  3775 ;; Registers used:
  3776 ;;		wreg, status,2, status,0
  3777 ;; Tracked objects:
  3778 ;;		On entry : 0/0
  3779 ;;		On exit  : 0/0
  3780 ;;		Unchanged: 0/0
  3781 ;; Data sizes:     COMMON   BANK0   BANK1   BANK2   BANK3   BANK4   BANK5   BANK6   BANK7   BANK8   BANK9  BANK10  BANK1
      +1  BANK12
  3782 ;;      Params:         5       0       0       0       0       0       0       0       0       0       0       0       
      +0       0
  3783 ;;      Locals:         0       0       0       0       0       0       0       0       0       0       0       0       
      +0       0
  3784 ;;      Temps:          3       0       0       0       0       0       0       0       0       0       0       0       
      +0       0
  3785 ;;      Totals:         8       0       0       0       0       0       0       0       0       0       0       0       
      +0       0
  3786 ;;Total ram usage:        8 bytes
  3787 ;; Hardware stack levels used:    1
  3788 ;; Hardware stack levels required when called:    1
  3789 ;; This function calls:
  3790 ;;		Nothing
  3791 ;; This function is called by:
  3792 ;;		___ftdiv
  3793 ;;		___ftmul
  3794 ;;		___lltoft
  3795 ;; This function uses a non-reentrant model
  3796 ;;
  3797                           
  3798                           
  3799                           ;psect for function ___ftpack
  3800  0458                     ___ftpack:	
  3801                           
  3802                           ;incstack = 0
  3803                           ; Regs used in ___ftpack: [wreg+status,2+status,0]
  3804  0458  0875               	movf	___ftpack@exp,w
  3805  0459  1903               	btfsc	3,2
  3806  045A  2C60               	goto	l1640
  3807  045B  0874               	movf	___ftpack@arg+2,w
  3808  045C  0473               	iorwf	___ftpack@arg+1,w
  3809  045D  0472               	iorwf	___ftpack@arg,w
  3810  045E  1D03               	skipz
  3811  045F  2C71               	goto	l1646
  3812  0460                     l1640:	
  3813  0460  3000               	movlw	0
  3814  0461  00F2               	movwf	?___ftpack
  3815  0462  3000               	movlw	0
  3816  0463  00F3               	movwf	?___ftpack+1
  3817  0464  3000               	movlw	0
  3818  0465  00F4               	movwf	?___ftpack+2
  3819  0466  0008               	return
  3820  0467                     l1644:	
  3821  0467  3001               	movlw	1
  3822  0468  00F7               	movwf	??___ftpack
  3823  0469  0877               	movf	??___ftpack,w
  3824  046A  07F5               	addwf	___ftpack@exp,f
  3825  046B  3001               	movlw	1
  3826  046C                     u2025:	
  3827  046C  36F4               	lsrf	___ftpack@arg+2,f
  3828  046D  0CF3               	rrf	___ftpack@arg+1,f
  3829  046E  0CF2               	rrf	___ftpack@arg,f
  3830  046F  0B89               	decfsz	9,f
  3831  0470  2C6C               	goto	u2025
  3832  0471                     l1646:	
  3833  0471  30FE               	movlw	254
  3834  0472  0574               	andwf	___ftpack@arg+2,w
  3835  0473  1903               	btfsc	3,2
  3836  0474  2C8A               	goto	l386
  3837  0475  2C67               	goto	l1644
  3838  0476                     l1648:	
  3839  0476  3001               	movlw	1
  3840  0477  00F7               	movwf	??___ftpack
  3841  0478  0877               	movf	??___ftpack,w
  3842  0479  07F5               	addwf	___ftpack@exp,f
  3843  047A  3001               	movlw	1
  3844  047B  07F2               	addwf	___ftpack@arg,f
  3845  047C  3000               	movlw	0
  3846  047D  1803               	skipnc
  3847  047E  3001               	movlw	1
  3848  047F  07F3               	addwf	___ftpack@arg+1,f
  3849  0480  3000               	movlw	0
  3850  0481  1803               	skipnc
  3851  0482  3001               	movlw	1
  3852  0483  07F4               	addwf	___ftpack@arg+2,f
  3853  0484  3001               	movlw	1
  3854  0485                     u2045:	
  3855  0485  36F4               	lsrf	___ftpack@arg+2,f
  3856  0486  0CF3               	rrf	___ftpack@arg+1,f
  3857  0487  0CF2               	rrf	___ftpack@arg,f
  3858  0488  0B89               	decfsz	9,f
  3859  0489  2C85               	goto	u2045
  3860  048A                     l386:	
  3861  048A  30FF               	movlw	255
  3862  048B  0574               	andwf	___ftpack@arg+2,w
  3863  048C  1903               	btfsc	3,2
  3864  048D  2C97               	goto	l1656
  3865  048E  2C76               	goto	l1648
  3866  048F                     l1654:	
  3867  048F  3001               	movlw	1
  3868  0490  02F5               	subwf	___ftpack@exp,f
  3869  0491  3001               	movlw	1
  3870  0492                     u2065:	
  3871  0492  35F2               	lslf	___ftpack@arg,f
  3872  0493  0DF3               	rlf	___ftpack@arg+1,f
  3873  0494  0DF4               	rlf	___ftpack@arg+2,f
  3874  0495  0B89               	decfsz	9,f
  3875  0496  2C92               	goto	u2065
  3876  0497                     l1656:	
  3877  0497  1FF3               	btfss	___ftpack@arg+1,7
  3878  0498  2C8F               	goto	l1654
  3879  0499  1875               	btfsc	___ftpack@exp,0
  3880  049A  2CA1               	goto	l392
  3881  049B  30FF               	movlw	255
  3882  049C  05F2               	andwf	___ftpack@arg,f
  3883  049D  307F               	movlw	127
  3884  049E  05F3               	andwf	___ftpack@arg+1,f
  3885  049F  30FF               	movlw	255
  3886  04A0  05F4               	andwf	___ftpack@arg+2,f
  3887  04A1                     l392:	
  3888  04A1  1003               	clrc
  3889  04A2  0CF5               	rrf	___ftpack@exp,f
  3890  04A3  0875               	movf	___ftpack@exp,w
  3891  04A4  00F7               	movwf	??___ftpack
  3892  04A5  01F8               	clrf	??___ftpack+1
  3893  04A6  01F9               	clrf	??___ftpack+2
  3894  04A7  3010               	movlw	16
  3895  04A8                     u2095:	
  3896  04A8  35F7               	lslf	??___ftpack,f
  3897  04A9  0DF8               	rlf	??___ftpack+1,f
  3898  04AA  0DF9               	rlf	??___ftpack+2,f
  3899  04AB  0B89               	decfsz	9,f
  3900  04AC  2CA8               	goto	u2095
  3901  04AD  0877               	movf	??___ftpack,w
  3902  04AE  04F2               	iorwf	___ftpack@arg,f
  3903  04AF  0878               	movf	??___ftpack+1,w
  3904  04B0  04F3               	iorwf	___ftpack@arg+1,f
  3905  04B1  0879               	movf	??___ftpack+2,w
  3906  04B2  04F4               	iorwf	___ftpack@arg+2,f
  3907  04B3  0876               	movf	___ftpack@sign,w
  3908  04B4  1903               	btfsc	3,2
  3909  04B5  0008               	return
  3910  04B6  17F4               	bsf	___ftpack@arg+2,7
  3911  04B7  0008               	return
  3912  04B8                     __end_of___ftpack:	
  3913                           
  3914                           	psect	intentry
  3915  0004                     __pintentry:	
  3916 ;; *************** function _isr *****************
  3917 ;; Defined at:
  3918 ;;		line 139 in file "main.c"
  3919 ;; Parameters:    Size  Location     Type
  3920 ;;		None
  3921 ;; Auto vars:     Size  Location     Type
  3922 ;;		None
  3923 ;; Return value:  Size  Location     Type
  3924 ;;		None               void
  3925 ;; Registers used:
  3926 ;;		wreg, status,2, status,0
  3927 ;; Tracked objects:
  3928 ;;		On entry : 0/0
  3929 ;;		On exit  : 0/0
  3930 ;;		Unchanged: 0/0
  3931 ;; Data sizes:     COMMON   BANK0   BANK1   BANK2   BANK3   BANK4   BANK5   BANK6   BANK7   BANK8   BANK9  BANK10  BANK1
      +1  BANK12
  3932 ;;      Params:         0       0       0       0       0       0       0       0       0       0       0       0       
      +0       0
  3933 ;;      Locals:         0       0       0       0       0       0       0       0       0       0       0       0       
      +0       0
  3934 ;;      Temps:          2       0       0       0       0       0       0       0       0       0       0       0       
      +0       0
  3935 ;;      Totals:         2       0       0       0       0       0       0       0       0       0       0       0       
      +0       0
  3936 ;;Total ram usage:        2 bytes
  3937 ;; Hardware stack levels used:    1
  3938 ;; This function calls:
  3939 ;;		Nothing
  3940 ;; This function is called by:
  3941 ;;		Interrupt level 1
  3942 ;; This function uses a non-reentrant model
  3943 ;;
  3944                           
  3945  0004                     _isr:	
  3946                           
  3947                           ;incstack = 0
  3948                           ; Regs used in _isr: [wreg+status,2+status,0]
  3949  0004  147E               	bsf	126,0	;set compiler interrupt flag
  3950  0005  3180               	pagesel	$
  3951  0006  0020               	movlb	0	; select bank0
  3952  0007  087F               	movf	127,w
  3953  0008  00F1               	movwf	??_isr+1
  3954                           
  3955                           ;main.c: 142: static int cnt = 0;
  3956                           ;main.c: 145: if (TMR0IF) {
  3957  0009  1D0B               	btfss	11,2	;volatile
  3958  000A  282D               	goto	i1l81
  3959                           
  3960                           ;main.c: 147: if (++cnt > 126) {
  3961  000B  3001               	movlw	1
  3962  000C  07E8               	addwf	isr@cnt,f
  3963  000D  3000               	movlw	0
  3964  000E  3DE9               	addwfc	isr@cnt+1,f
  3965  000F  0869               	movf	isr@cnt+1,w
  3966  0010  3A80               	xorlw	128
  3967  0011  00F0               	movwf	??_isr
  3968  0012  3080               	movlw	128
  3969  0013  0270               	subwf	??_isr,w
  3970  0014  1D03               	skipz
  3971  0015  2818               	goto	u178_25
  3972  0016  307F               	movlw	127
  3973  0017  0268               	subwf	isr@cnt,w
  3974  0018                     u178_25:	
  3975  0018  1C03               	skipc
  3976  0019  282C               	goto	i1l1552
  3977                           
  3978                           ;main.c: 148: LATBbits.LATB7 = ~LATBbits.LATB7;
  3979  001A  1003               	clrc
  3980  001B  0022               	movlb	2	; select bank2
  3981  001C  1F8D               	btfss	13,7	;volatile
  3982  001D  1403               	setc
  3983  001E  1C03               	btfss	3,0
  3984  001F  2823               	goto	u179_20
  3985  0020  0022               	movlb	2	; select bank2
  3986  0021  178D               	bsf	13,7	;volatile
  3987  0022  2825               	goto	i1l1548
  3988  0023                     u179_20:	
  3989  0023  0022               	movlb	2	; select bank2
  3990  0024  138D               	bcf	13,7	;volatile
  3991  0025                     i1l1548:	
  3992                           
  3993                           ;main.c: 150: cnt = 0;
  3994  0025  0020               	movlb	0	; select bank0
  3995  0026  01E8               	clrf	isr@cnt
  3996  0027  01E9               	clrf	isr@cnt+1
  3997                           
  3998                           ;main.c: 151: bMedida = TRUE;
  3999  0028  3001               	movlw	1
  4000  0029  00F0               	movwf	??_isr
  4001  002A  0870               	movf	??_isr,w
  4002  002B  00EA               	movwf	_bMedida	;volatile
  4003  002C                     i1l1552:	
  4004                           
  4005                           ;main.c: 152: }
  4006                           ;main.c: 154: TMR0IF = 0;
  4007  002C  110B               	bcf	11,2	;volatile
  4008  002D                     i1l81:	
  4009  002D  0871               	movf	??_isr+1,w
  4010  002E  0020               	movlb	0	; select bank0
  4011  002F  00FF               	movwf	127
  4012  0030  107E               	bcf	126,0	;clear compiler interrupt flag
  4013  0031  0009               	retfie
  4014  0032                     __end_of_isr:	
  4015  007E                     btemp	set	126	;btemp
  4016  007E                     pic14e$flags	set	126
  4017  007E                     wtemp	set	126
  4018  007E                     wtemp0	set	126
  4019  0080                     wtemp1	set	128
  4020  0082                     wtemp2	set	130
  4021  0084                     wtemp3	set	132
  4022  0086                     wtemp4	set	134
  4023  0088                     wtemp5	set	136
  4024  007F                     wtemp6	set	127
  4025  007E                     ttemp	set	126
  4026  007E                     ttemp0	set	126
  4027  0081                     ttemp1	set	129
  4028  0084                     ttemp2	set	132
  4029  0087                     ttemp3	set	135
  4030  007F                     ttemp4	set	127
  4031  007E                     ltemp	set	126
  4032  007E                     ltemp0	set	126
  4033  0082                     ltemp1	set	130
  4034  0086                     ltemp2	set	134
  4035  0080                     ltemp3	set	128


Data Sizes:
    Strings     5
    Constant    0
    Data        2
    BSS         38
    Persistent  0
    Stack       0

Auto Spaces:
    Space          Size  Autos    Used
    COMMON           14     10      12
    BANK0            80     60      75
    BANK1            80      6      29
    BANK2            80      0       0
    BANK3            80      0       0
    BANK4            80      0       0
    BANK5            80      0       0
    BANK6            80      0       0
    BANK7            80      0       0
    BANK8            80      0       0
    BANK9            80      0       0
    BANK10           80      0       0
    BANK11           80      0       0
    BANK12           48      0       0

Pointer List with Targets:

    ultoa@buf	PTR unsigned char  size(1) Largest target is 5
		 -> Resul(BANK1[5]), 

    sp__ultoa	PTR unsigned char  size(1) Largest target is 5
		 -> Resul(BANK1[5]), 

    ltoa@buf	PTR unsigned char  size(1) Largest target is 5
		 -> Resul(BANK1[5]), 

    ltoa@cp	PTR unsigned char  size(1) Largest target is 5
		 -> Resul(BANK1[5]), 

    printVal@str	PTR unsigned char  size(2) Largest target is 5
		 -> Resul(BANK1[5]), STR_1(CODE[5]), 

    sp__ltoa	PTR unsigned char  size(1) Largest target is 5
		 -> Resul(BANK1[5]), 


Critical Paths under _main in COMMON

    _main->___lmul
    _main->_initPD3535
    _printVal->_disChar
    _disChar->_snd4094
    _ultoa->___lldiv
    _ultoa->___llmod
    _initPD3535->_snd4094
    ___lltoft->___ftpack
    ___ftmul->___ftpack
    ___ftdiv->___ftpack

Critical Paths under _isr in COMMON

    None.

Critical Paths under _main in BANK0

    _main->___fttol
    _ltoa->_ultoa
    _ultoa->___lldiv
    ___fttol->___ftmul
    ___ftmul->___ftdiv
    ___ftdiv->___lltoft

Critical Paths under _isr in BANK0

    None.

Critical Paths under _main in BANK1

    None.

Critical Paths under _isr in BANK1

    None.

Critical Paths under _main in BANK2

    None.

Critical Paths under _isr in BANK2

    None.

Critical Paths under _main in BANK3

    None.

Critical Paths under _isr in BANK3

    None.

Critical Paths under _main in BANK4

    None.

Critical Paths under _isr in BANK4

    None.

Critical Paths under _main in BANK5

    None.

Critical Paths under _isr in BANK5

    None.

Critical Paths under _main in BANK6

    None.

Critical Paths under _isr in BANK6

    None.

Critical Paths under _main in BANK7

    None.

Critical Paths under _isr in BANK7

    None.

Critical Paths under _main in BANK8

    None.

Critical Paths under _isr in BANK8

    None.

Critical Paths under _main in BANK9

    None.

Critical Paths under _isr in BANK9

    None.

Critical Paths under _main in BANK10

    None.

Critical Paths under _isr in BANK10

    None.

Critical Paths under _main in BANK11

    None.

Critical Paths under _isr in BANK11

    None.

Critical Paths under _main in BANK12

    None.

Critical Paths under _isr in BANK12

    None.

Call Graph Tables:

 ---------------------------------------------------------------------------------
 (Depth) Function   	        Calls       Base Space   Used Autos Params    Refs
 ---------------------------------------------------------------------------------
 (0) _main                                                15    15      0   12767
                                             52 BANK0      8     8      0
                                              0 BANK1      6     6      0
                            ___ftdiv
                            ___ftmul
                            ___fttol
                           ___lltoft
                             ___lmul
                         _initPD3535
                               _ltoa
                           _printVal
 ---------------------------------------------------------------------------------
 (1) _printVal                                             5     3      2     756
                                              0 BANK0      5     3      2
                            _disChar
 ---------------------------------------------------------------------------------
 (2) _disChar                                              4     4      0     438
                                              6 COMMON     4     4      0
                            _snd4094
 ---------------------------------------------------------------------------------
 (1) _ltoa                                                 9     3      6    1997
                                             19 BANK0      9     3      6
                              _ultoa
 ---------------------------------------------------------------------------------
 (2) _ultoa                                               13     7      6    1568
                                              6 BANK0     13     7      6
                            ___lldiv
                            ___llmod
 ---------------------------------------------------------------------------------
 (3) ___llmod                                             10     2      8     386
                                              2 COMMON     8     0      8
                                              0 BANK0      2     2      0
 ---------------------------------------------------------------------------------
 (3) ___lldiv                                             14     6      8     549
                                              2 COMMON     8     0      8
                                              0 BANK0      6     6      0
 ---------------------------------------------------------------------------------
 (1) _initPD3535                                           4     4      0     438
                                              6 COMMON     4     4      0
                            _snd4094
 ---------------------------------------------------------------------------------
 (3) _snd4094                                              4     2      2     336
                                              2 COMMON     4     2      2
 ---------------------------------------------------------------------------------
 (1) ___lmul                                              12     4      8     444
                                              2 COMMON     8     0      8
                                              0 BANK0      4     4      0
 ---------------------------------------------------------------------------------
 (1) ___lltoft                                             6     2      4    2552
                                              0 BANK0      6     2      4
                           ___ftpack
 ---------------------------------------------------------------------------------
 (1) ___fttol                                             14    10      4     448
                                             38 BANK0     14    10      4
                            ___ftdiv (ARG)
                            ___ftmul (ARG)
                           ___lltoft (ARG)
 ---------------------------------------------------------------------------------
 (1) ___ftmul                                             16    10      6    3015
                                             22 BANK0     16    10      6
                            ___ftdiv (ARG)
                           ___ftpack
                           ___lltoft (ARG)
 ---------------------------------------------------------------------------------
 (1) ___ftdiv                                             16    10      6    2947
                                              6 BANK0     16    10      6
                           ___ftpack
                           ___lltoft (ARG)
 ---------------------------------------------------------------------------------
 (2) ___ftpack                                             8     3      5    2373
                                              2 COMMON     8     3      5
 ---------------------------------------------------------------------------------
 Estimated maximum stack depth 3
 ---------------------------------------------------------------------------------
 (Depth) Function   	        Calls       Base Space   Used Autos Params    Refs
 ---------------------------------------------------------------------------------
 (4) _isr                                                  2     2      0       0
                                              0 COMMON     2     2      0
 ---------------------------------------------------------------------------------
 Estimated maximum stack depth 4
 ---------------------------------------------------------------------------------

 Call Graph Graphs:

 _main (ROOT)
   ___ftdiv
     ___ftpack
     ___lltoft (ARG)
       ___ftpack
   ___ftmul
     ___ftdiv (ARG)
       ___ftpack
       ___lltoft (ARG)
         ___ftpack
     ___ftpack (ARG)
     ___lltoft (ARG)
       ___ftpack
   ___fttol
     ___ftdiv (ARG)
       ___ftpack
       ___lltoft (ARG)
         ___ftpack
     ___ftmul (ARG)
       ___ftdiv (ARG)
         ___ftpack
         ___lltoft (ARG)
           ___ftpack
       ___ftpack (ARG)
       ___lltoft (ARG)
         ___ftpack
     ___lltoft (ARG)
       ___ftpack
   ___lltoft
     ___ftpack
   ___lmul
   _initPD3535
     _snd4094
   _ltoa
     _ultoa
       ___lldiv
       ___llmod
   _printVal
     _disChar
       _snd4094

 _isr (ROOT)

 Address spaces:
Name               Size   Autos  Total    Cost      Usage
BIGRAM             3F0      0       0       0        0.0%
NULL                 0      0       0       0        0.0%
CODE                 0      0       0       0        0.0%
BITCOMMON            E      0       0       1        0.0%
BITSFR0              0      0       0       1        0.0%
SFR0                 0      0       0       1        0.0%
COMMON               E      A       C       2       85.7%
BITSFR1              0      0       0       2        0.0%
SFR1                 0      0       0       2        0.0%
BITSFR2              0      0       0       3        0.0%
SFR2                 0      0       0       3        0.0%
STACK                0      0       0       3        0.0%
BITBANK0            50      0       0       4        0.0%
BITSFR3              0      0       0       4        0.0%
SFR3                 0      0       0       4        0.0%
BANK0               50     3C      4B       5       93.8%
BITSFR4              0      0       0       5        0.0%
SFR4                 0      0       0       5        0.0%
BITBANK1            50      0       0       6        0.0%
BITSFR5              0      0       0       6        0.0%
SFR5                 0      0       0       6        0.0%
BANK1               50      6      1D       7       36.3%
BITSFR6              0      0       0       7        0.0%
SFR6                 0      0       0       7        0.0%
BITBANK2            50      0       0       8        0.0%
BITSFR7              0      0       0       8        0.0%
SFR7                 0      0       0       8        0.0%
BANK2               50      0       0       9        0.0%
BITSFR8              0      0       0       9        0.0%
SFR8                 0      0       0       9        0.0%
BITBANK3            50      0       0      10        0.0%
BITSFR9              0      0       0      10        0.0%
SFR9                 0      0       0      10        0.0%
BANK3               50      0       0      11        0.0%
BITSFR10             0      0       0      11        0.0%
SFR10                0      0       0      11        0.0%
BITBANK4            50      0       0      12        0.0%
BITSFR11             0      0       0      12        0.0%
SFR11                0      0       0      12        0.0%
BANK4               50      0       0      13        0.0%
BITSFR12             0      0       0      13        0.0%
SFR12                0      0       0      13        0.0%
BITBANK5            50      0       0      14        0.0%
BITSFR13             0      0       0      14        0.0%
SFR13                0      0       0      14        0.0%
BANK5               50      0       0      15        0.0%
BITSFR14             0      0       0      15        0.0%
SFR14                0      0       0      15        0.0%
BITBANK6            50      0       0      16        0.0%
BITSFR15             0      0       0      16        0.0%
SFR15                0      0       0      16        0.0%
BANK6               50      0       0      17        0.0%
BITSFR16             0      0       0      17        0.0%
SFR16                0      0       0      17        0.0%
BITBANK7            50      0       0      18        0.0%
BITSFR17             0      0       0      18        0.0%
SFR17                0      0       0      18        0.0%
BANK7               50      0       0      19        0.0%
BITSFR18             0      0       0      19        0.0%
SFR18                0      0       0      19        0.0%
BITSFR19             0      0       0      20        0.0%
SFR19                0      0       0      20        0.0%
ABS                  0      0      74      20        0.0%
BITBANK8            50      0       0      21        0.0%
BITSFR20             0      0       0      21        0.0%
SFR20                0      0       0      21        0.0%
BANK8               50      0       0      22        0.0%
BITSFR21             0      0       0      22        0.0%
SFR21                0      0       0      22        0.0%
BITBANK9            50      0       0      23        0.0%
BITSFR22             0      0       0      23        0.0%
SFR22                0      0       0      23        0.0%
BANK9               50      0       0      24        0.0%
BITSFR23             0      0       0      24        0.0%
SFR23                0      0       0      24        0.0%
BITBANK10           50      0       0      25        0.0%
BITSFR24             0      0       0      25        0.0%
SFR24                0      0       0      25        0.0%
BANK10              50      0       0      26        0.0%
BITSFR25             0      0       0      26        0.0%
SFR25                0      0       0      26        0.0%
BITBANK11           50      0       0      27        0.0%
BITSFR26             0      0       0      27        0.0%
SFR26                0      0       0      27        0.0%
BANK11              50      0       0      28        0.0%
BITSFR27             0      0       0      28        0.0%
SFR27                0      0       0      28        0.0%
BITBANK12           30      0       0      29        0.0%
BITSFR28             0      0       0      29        0.0%
SFR28                0      0       0      29        0.0%
BANK12              30      0       0      30        0.0%
BITSFR29             0      0       0      30        0.0%
SFR29                0      0       0      30        0.0%
BITSFR30             0      0       0      31        0.0%
SFR30                0      0       0      31        0.0%
DATA                 0      0      74      31        0.0%
BITSFR31             0      0       0      32        0.0%
SFR31                0      0       0      32        0.0%


Microchip Technology PIC Macro Assembler V1.33 build 59893 
Symbol Table                                                                                   Sun Dec 28 10:30:20 2014

                      _i 0064              __CFG_CP$OFF 0000                       l70 00FB  
                     l68 00F9                       _ip 00AF                       _vr 00A4  
                    l195 05FD                      l196 0613                      l197 0601  
                    l392 04A1                      l386 048A                      l558 03BD  
                    _PEN 10B2                      _fvr 00AC                      _isr 0004  
                    _res 0066                      _lux 0060                      wreg 0009  
           __CFG_LVP$OFF 0000             ___ftdiv@cntr 0030             ___ftdiv@sign 0035  
                   l1600 04F7                     l1604 0502                     l1620 053A  
                   l1614 0514                     l1710 056B                     l1640 0460  
                   l1616 0522                     l1624 0545                     l1802 0218  
                   l1730 05DE                     l1644 0467                     l1740 05A2  
                   l1572 0602                     l1716 0580                     l1708 0551  
                   l1654 048F                     l1646 0471                     l1830 0277  
                   l1814 0253                     l1590 04C9                     l1656 0497  
                   l1648 0476                     l1760 02CC                     l1736 0597  
                   l1592 04D7                     l1754 02B6                     l1826 026F  
                   l1818 025B                     l1668 0352                     l1940 00C0  
                   l1782 0326                     l1774 030D                     l1846 03EA  
                   l1678 037F                     l1950 00DC                     l1934 008A  
                   l1880 044F                     l1872 0435                     l1864 041A  
                   l1874 043E                     l1866 0428                     l1890 0631  
                   l1962 0135                     l1796 0202                     l1876 0441  
                   l1888 0621                     ?_isr 0070                     STR_1 0700  
                   u2025 046C                     u2045 0485                     u2205 05A3  
                   u2215 05AA                     u2065 0492                     u2155 0574  
                   u2405 0278                     u2095 04A8                     u2255 02DE  
                   u2415 027E                     u2335 0224                     u2265 02EE  
                   u2345 0234                     u2505 0436                     u2275 030E  
                   u2285 031D                     u2365 025C                     u2445 03F1  
                   u2605 0133                     u2295 0327                     u2375 0262  
                   u2535 0626                     u2615 0136                     u1905 04EC  
                   u2625 015A                     u2475 041B                     u1915 04F8  
                   u2555 0088                     u1845 0603                     u2565 00BE  
                   u2647 0095                     u1945 0517                     u2585 00F7  
                   u2657 00A7                     u1875 04CC                     u2667 00D5  
                   u2677 060A                     u1965 0530                     u2687 0616  
                   u1895 04D8                     u1975 053B                     u1995 0665  
                   _RCEN 10B3                     i1l81 002D                     _TMR0 0015  
           __CFG_WRT$OFF 0000                     _main 004F             ___ftpack@arg 0072  
           ___ftpack@exp 0075                     _ltoa 05C0                     fsr0h 0005  
                   fsr1h 0007                     fsr0l 0004                     indf0 0000  
                   indf1 0001                     fsr1l 0006                     btemp 007E  
            snd4094@dato 0072                     _wlux 00A8                     ltemp 007E  
                   start 0032                     ttemp 007E                     wtemp 007E  
          __CFG_MCLRE$ON 0000             ___ftmul@cntr 0044             ___ftmul@sign 0045  
           ___fttol@exp1 0053             ___fttol@lval 004F                    ??_isr 0070  
                  ?_main 0070                    ?_ltoa 0033            __CFG_WDTE$OFF 0000  
        __end_of___ftdiv 0348          __end_of___lldiv 050B          __end_of___ftmul 029F  
        __end_of___llmod 054E          __end_of___fttol 0458                    _TRISA 008C  
        __end_of_disChar 066C      ___lmul@multiplicand 0076             ___lltoft@exp 0025  
                  _Resul 00B2          __end_of_snd4094 061C            ___ftpack@sign 0076  
                  _resul 00A0                    main@i 00BB                    _ultoa 0348  
         __CFG_BOREN$OFF 0000                    ltemp0 007E                    ltemp1 0082  
                  ltemp2 0086                    ltemp3 0080                    ttemp0 007E  
                  ttemp1 0081                    ttemp2 0084                    ttemp3 0087  
                  ttemp4 007F                    status 0003                    wtemp0 007E  
                  wtemp1 0080                    wtemp2 0082                    wtemp3 0084  
                  wtemp4 0086                    wtemp5 0088                    wtemp6 007F  
        __initialization 0034             __end_of_main 01EB             __end_of_ltoa 05F0  
                 ??_main 0054            ___fttol@sign1 004E                   ??_ltoa 0039  
       ___llmod@dividend 0076                   _ADRESH 009C                   _ADRESL 009B  
                 _ANSELA 018C                   _ANSELB 018D         __end_of___ftpack 04B8  
                 ?_ultoa 0026         __end_of___lltoft 0646                   _RB4PPS 0E9C  
                 _RB6PPS 0E9E                   i1l1552 002C                   i1l1548 0025  
                 u178_25 0018                   u179_20 0023                   _TMR0IF 005A  
                 _SSPBUF 0211           __CFG_PWRTE$OFF 0000                   ___lmul 058E  
                 _ad_res 005C           __CFG_STVREN$ON 0000                ??___ftdiv 002C  
              ??___lldiv 0020                ??___ftmul 003C                ??___llmod 0020  
              ??___fttol 004A                ??_disChar 0076                ??_snd4094 0074  
  ___ftmul@f3_as_product 0041                   isr@cnt 0068             __pdataCOMMON 007A  
                 ltoa@cp 003A         __end_of_printVal 058E                   ultoa@c 0031  
                 ultoa@v 002D  __end_of__initialization 004B               ___ftdiv@f1 0029  
             ___ftdiv@f2 0026               ___ftdiv@f3 0031               ___ftmul@f1 0036  
             ___ftmul@f2 0039               ___fttol@f1 0046           __pcstackCOMMON 0070  
             ___lltoft@c 0020            __end_of_ultoa 03D1           _OPTION_REGbits 0095  
                ??_ultoa 002C               __pbssBANK0 005C               __pbssBANK1 00A0  
             __pmaintext 004F                  ?___lmul 0072               __pintentry 0004  
         ___lmul@product 0020                ?___ftpack 0072                ?___lltoft 0020  
                _SSP1ADD 0212               _initPD3535 066C                  _bMedida 006A  
              ?_printVal 0020          __size_of___lmul 0032                  ___ftdiv 029F  
                ___lldiv 04B8                  ___ftmul 01EB                  ___llmod 050B  
                ___fttol 03D1                  _disChar 0646               ??___ftpack 0077  
             ??___lltoft 0024                  __ptext1 054E                  __ptext2 0646  
                __ptext3 05C0                  __ptext4 0348                  __ptext5 050B  
                __ptext6 04B8                  __ptext7 066C                  __ptext8 05F0  
                __ptext9 058E                  _snd4094 05F0               disChar@pos 007A  
           __size_of_isr 002E                  clrloop0 0680     end_of_initialization 004B  
                ltoa@buf 003B                  ltoa@val 0033          ___lldiv@divisor 0072  
        ___lldiv@counter 0025               ??_printVal 0022             __pstringtext 0700  
       __CFG_FOSC$INTOSC 0000                _TRISBbits 008D              ?_initPD3535 0070  
            printVal@str 0020              ___ftdiv@exp 0034              ___ftmul@exp 0040  
         __end_of___lmul 05C0            __pidataCOMMON 0705      start_initialization 0034  
            __end_of_isr 0032          ___llmod@divisor 0072          ___llmod@counter 0021  
               ??___lmul 007A      __size_of_initPD3535 0013        __size_of___ftpack 0060  
      __size_of___lltoft 002A                ___latbits 0002            __pcstackBANK0 0020  
          __pcstackBANK1 00B7      __end_of__stringdata 0705                _main$1204 00B7  
               ?___ftdiv 0026                 ?___lldiv 0072                 ?___ftmul 0036  
               ?___llmod 0072                 ?___fttol 0046        __size_of_printVal 0040  
               ?_disChar 0070                 ?_snd4094 0072           __size_of_ultoa 0089  
              disChar@ch 0077                 _LATBbits 010D                clear_ram0 067F  
               _PIE1bits 0091                 _PIR1bits 0011                 _SSP1CON2 0216  
               _SSP1STAT 0214               _ADCON0bits 009D               _ADCON1bits 009E  
            __stringdata 0700           initPD3535@dato 0078           initPD3535@modo 0077  
               _WPUBbits 020D              _OPA2CONbits 0515        ___lmul@multiplier 0072  
           ??_initPD3535 0076         __size_of___ftdiv 00A9         __size_of___lldiv 0053  
       __size_of___ftmul 00B4         __size_of___llmod 0043         __size_of___fttol 0087  
               ___ftpack 0458                 ___lltoft 061C         __size_of_disChar 0026  
     __end_of_initPD3535 067F         __size_of_snd4094 002C                 __ptext10 061C  
               __ptext11 03D1                 __ptext12 01EB                 __ptext13 029F  
               __ptext14 0458             _SSP1CON2bits 0216              disChar@buff 0078  
          __size_of_main 019C            __size_of_ltoa 0030                 _printVal 054E  
              printVal@i 0023                 snd4094@i 0075               _INTCONbits 000B  
              ultoa@base 002A              pic14e$flags 007E                 intlevel1 0000  
               ltoa@base 0037         ___lldiv@dividend 0076        __CFG_CLKOUTEN$OFF 0000  
            _SSP1CONbits 0215               _OSCCONbits 0099                 ultoa@buf 0032  
               ultoa@val 0026         ___lldiv@quotient 0021              _SSPCON2bits 0216  
